	.text
	.syntax unified
	.eabi_attribute	67, "2.09"	@ Tag_conformance
	.cpu	cortex-a8
	.eabi_attribute	6, 10	@ Tag_CPU_arch
	.eabi_attribute	7, 65	@ Tag_CPU_arch_profile
	.eabi_attribute	8, 1	@ Tag_ARM_ISA_use
	.eabi_attribute	9, 2	@ Tag_THUMB_ISA_use
	.fpu	neon
	.eabi_attribute	17, 1	@ Tag_ABI_PCS_GOT_use
	.eabi_attribute	20, 2	@ Tag_ABI_FP_denormal
	.eabi_attribute	23, 1	@ Tag_ABI_FP_number_model
	.eabi_attribute	34, 1	@ Tag_CPU_unaligned_access
	.eabi_attribute	24, 1	@ Tag_ABI_align_needed
	.eabi_attribute	25, 1	@ Tag_ABI_align_preserved
	.eabi_attribute	28, 1	@ Tag_ABI_VFP_args
	.eabi_attribute	38, 1	@ Tag_ABI_FP_16bit_format
	.eabi_attribute	18, 4	@ Tag_ABI_PCS_wchar_t
	.eabi_attribute	26, 2	@ Tag_ABI_enum_size
	.eabi_attribute	14, 0	@ Tag_ABI_PCS_R9_use
	.eabi_attribute	68, 1	@ Tag_Virtualization_use
	.file	"/root/Bela/projects/rnbo.example.bela-main/build/rnbo/src/RNBO_Logger.bc"
	.file	1 "/root/Bela/projects/rnbo.example.bela-main/rnbo/common" "RNBO_Types.h"
	.file	2 "/root/Bela/projects/rnbo.example.bela-main/rnbo/common" "RNBO_Logger.h"
	.file	3 "/root/Bela/projects/rnbo.example.bela-main/rnbo/common" "RNBO_String.h"
	.file	4 "/usr/lib/llvm-3.9/bin/../lib/clang/3.9.1/include" "stddef.h"
	.file	5 "/root/Bela/projects/rnbo.example.bela-main/rnbo/common" "RNBO_List.h"
	.file	6 "/root/Bela/projects/rnbo.example.bela-main/rnbo/src" "RNBO_Logger.cpp"
	.file	7 "/root/Bela/projects/rnbo.example.bela-main/rnbo/src" "RNBO_DynamicSymbolRegistry.h"
	.file	8 "/usr/bin/../lib/gcc/arm-linux-gnueabihf/6.3.0/../../../../include/arm-linux-gnueabihf/c++/6.3.0/bits" "c++config.h"
	.file	9 "/usr/bin/../lib/gcc/arm-linux-gnueabihf/6.3.0/../../../../include/c++/6.3.0/bits" "alloc_traits.h"
	.file	10 "/usr/bin/../lib/gcc/arm-linux-gnueabihf/6.3.0/../../../../include/c++/6.3.0/ext" "new_allocator.h"
	.file	11 "/usr/bin/../lib/gcc/arm-linux-gnueabihf/6.3.0/../../../../include/arm-linux-gnueabihf/c++/6.3.0/bits" "c++allocator.h"
	.file	12 "/usr/bin/../lib/gcc/arm-linux-gnueabihf/6.3.0/../../../../include/c++/6.3.0/bits" "allocator.h"
	.file	13 "/usr/bin/../lib/gcc/arm-linux-gnueabihf/6.3.0/../../../../include/c++/6.3.0/ext" "alloc_traits.h"
	.file	14 "/usr/bin/../lib/gcc/arm-linux-gnueabihf/6.3.0/../../../../include/c++/6.3.0/bits" "stl_vector.h"
	.file	15 "/usr/bin/../lib/gcc/arm-linux-gnueabihf/6.3.0/../../../../include/c++/6.3.0" "type_traits"
	.file	16 "/root/Bela/projects/rnbo.example.bela-main/rnbo/common" "RNBO_PlatformInterface.h"
	.file	17 "/usr/bin/../lib/gcc/arm-linux-gnueabihf/6.3.0/../../../../include/c++/6.3.0/ext" "concurrence.h"
	.file	18 "/usr/bin/../lib/gcc/arm-linux-gnueabihf/6.3.0/../../../../include/c++/6.3.0/bits" "cpp_type_traits.h"
	.file	19 "/usr/bin/../lib/gcc/arm-linux-gnueabihf/6.3.0/../../../../include/c++/6.3.0/bits" "stl_iterator.h"
	.file	20 "/usr/bin/../lib/gcc/arm-linux-gnueabihf/6.3.0/../../../../include/c++/6.3.0/bits" "stl_iterator_base_types.h"
	.file	21 "/usr/include" "stdlib.h"
	.file	22 "/usr/include/arm-linux-gnueabihf/bits" "stdlib-float.h"
	.file	23 "/usr/include/arm-linux-gnueabihf/bits" "stdlib-bsearch.h"
	.file	24 "/usr/bin/../lib/gcc/arm-linux-gnueabihf/6.3.0/../../../../include/c++/6.3.0" "cstdlib"
	.file	25 "/root/Bela/projects/rnbo.example.bela-main/build/rnbo/src" "RNBO_Logger.cpp"
	.file	26 "/usr/bin/../lib/gcc/arm-linux-gnueabihf/6.3.0/../../../../include/c++/6.3.0/debug" "debug.h"
	.file	27 "/usr/bin/../lib/gcc/arm-linux-gnueabihf/6.3.0/../../../../include/c++/6.3.0/bits" "exception_ptr.h"
	.file	28 "/usr/include" "wchar.h"
	.file	29 "/usr/include" "libio.h"
	.file	30 "/usr/include/arm-linux-gnueabihf/bits" "types.h"
	.file	31 "/usr/include" "stdio.h"
	.file	32 "/usr/lib/llvm-3.9/bin/../lib/clang/3.9.1/include" "stdarg.h"
	.file	33 "/usr/include" "stdint.h"
	.file	34 "/usr/include" "locale.h"
	.file	35 "/usr/include" "ctype.h"
	.file	36 "/usr/include" "_G_config.h"
	.file	37 "/usr/include/arm-linux-gnueabihf/bits" "stdio.h"
	.globl	_ZN4RNBO6LoggerC2Ev
	.p2align	2
	.type	_ZN4RNBO6LoggerC2Ev,%function
_ZN4RNBO6LoggerC2Ev:                    @ @_ZN4RNBO6LoggerC2Ev
.Lfunc_begin0:
	.loc	6 19 0                  @ /root/Bela/projects/rnbo.example.bela-main/rnbo/src/RNBO_Logger.cpp:19:0
	.fnstart
	.cfi_startproc
@ BB#0:
	@DEBUG_VALUE: Logger:this <- %R0
	.loc	6 19 2 prologue_end     @ /root/Bela/projects/rnbo.example.bela-main/rnbo/src/RNBO_Logger.cpp:19:2
	movw	r1, :lower16:_ZTVN4RNBO6LoggerE
	.loc	6 18 4                  @ /root/Bela/projects/rnbo.example.bela-main/rnbo/src/RNBO_Logger.cpp:18:4
	movw	r2, :lower16:_ZN4RNBO6Logger24defaultLogOutputFunctionENS_8LogLevelEPKc
	.loc	6 19 2                  @ /root/Bela/projects/rnbo.example.bela-main/rnbo/src/RNBO_Logger.cpp:19:2
	movt	r1, :upper16:_ZTVN4RNBO6LoggerE
	.loc	6 18 4                  @ /root/Bela/projects/rnbo.example.bela-main/rnbo/src/RNBO_Logger.cpp:18:4
	movt	r2, :upper16:_ZN4RNBO6Logger24defaultLogOutputFunctionENS_8LogLevelEPKc
	.loc	6 19 2                  @ /root/Bela/projects/rnbo.example.bela-main/rnbo/src/RNBO_Logger.cpp:19:2
	add	r1, r1, #8
	stm	r0, {r1, r2}
	.loc	6 20 2                  @ /root/Bela/projects/rnbo.example.bela-main/rnbo/src/RNBO_Logger.cpp:20:2
	bx	lr
.Ltmp0:
.Lfunc_end0:
	.size	_ZN4RNBO6LoggerC2Ev, .Lfunc_end0-_ZN4RNBO6LoggerC2Ev
	.cfi_endproc
	.fnend

	.globl	_ZN4RNBO6Logger24defaultLogOutputFunctionENS_8LogLevelEPKc
	.p2align	2
	.type	_ZN4RNBO6Logger24defaultLogOutputFunctionENS_8LogLevelEPKc,%function
_ZN4RNBO6Logger24defaultLogOutputFunctionENS_8LogLevelEPKc: @ @_ZN4RNBO6Logger24defaultLogOutputFunctionENS_8LogLevelEPKc
.Lfunc_begin1:
	.loc	6 32 0                  @ /root/Bela/projects/rnbo.example.bela-main/rnbo/src/RNBO_Logger.cpp:32:0
	.fnstart
	.cfi_startproc
@ BB#0:                                 @ %.preheader.i
	.save	{r4, r5, r6, r7, r8, r9, r10, r11, lr}
	push	{r4, r5, r6, r7, r8, r9, r10, r11, lr}
.Ltmp28:
	.cfi_def_cfa_offset 36
.Ltmp29:
	.cfi_offset lr, -4
.Ltmp30:
	.cfi_offset r11, -8
.Ltmp31:
	.cfi_offset r10, -12
.Ltmp32:
	.cfi_offset r9, -16
.Ltmp33:
	.cfi_offset r8, -20
.Ltmp34:
	.cfi_offset r7, -24
.Ltmp35:
	.cfi_offset r6, -28
.Ltmp36:
	.cfi_offset r5, -32
.Ltmp37:
	.cfi_offset r4, -36
	.setfp	r11, sp, #28
	add	r11, sp, #28
.Ltmp38:
	.cfi_def_cfa r11, 8
	.pad	#12
	sub	sp, sp, #12
	@DEBUG_VALUE: defaultLogOutputFunction:level <- %R0
	@DEBUG_VALUE: defaultLogOutputFunction:message <- %R1
	str	r1, [sp, #8]            @ 4-byte Spill
.Ltmp39:
	@DEBUG_VALUE: append:astr <- %R10
	@DEBUG_VALUE: copy:origin <- %R10
	@DEBUG_VALUE: String:str <- %R10
	@DEBUG_VALUE: defaultLogOutputFunction:message <- [%SP+8]
	.loc	16 63 11 prologue_end   @ /root/Bela/projects/rnbo.example.bela-main/rnbo/common/RNBO_PlatformInterface.h:63:11
	movw	r1, :lower16:_ZZN4RNBO8Platform8instanceEvE9pInstance
	movt	r1, :upper16:_ZZN4RNBO8Platform8instanceEvE9pInstance
.Ltmp40:
	.loc	6 34 29                 @ /root/Bela/projects/rnbo.example.bela-main/rnbo/src/RNBO_Logger.cpp:34:29
	movw	r3, :lower16:_ZZN4RNBO6Logger24defaultLogOutputFunctionENS_8LogLevelEPKcE8levelStr
.Ltmp41:
	.loc	16 63 11                @ /root/Bela/projects/rnbo.example.bela-main/rnbo/common/RNBO_PlatformInterface.h:63:11
	ldr	r1, [r1]
.Ltmp42:
	.loc	6 34 29                 @ /root/Bela/projects/rnbo.example.bela-main/rnbo/src/RNBO_Logger.cpp:34:29
	movt	r3, :upper16:_ZZN4RNBO6Logger24defaultLogOutputFunctionENS_8LogLevelEPKcE8levelStr
	ldr	r10, [r3, r0, lsl #2]
.Ltmp43:
	.loc	3 72 35                 @ /root/Bela/projects/rnbo.example.bela-main/rnbo/common/RNBO_String.h:72:35
	ldr	r2, [r1]
	.loc	3 72 35 is_stmt 0 discriminator 2 @ /root/Bela/projects/rnbo.example.bela-main/rnbo/common/RNBO_String.h:72:35
	mov	r0, r1
.Ltmp44:
	mov	r1, r10
	.loc	3 72 35                 @ /root/Bela/projects/rnbo.example.bela-main/rnbo/common/RNBO_String.h:72:35
	ldr	r2, [r2, #44]
	.loc	3 72 35 discriminator 2 @ /root/Bela/projects/rnbo.example.bela-main/rnbo/common/RNBO_String.h:72:35
	blx	r2
.Ltmp45:
	mov	r6, r0
.Ltmp46:
	@DEBUG_VALUE: append:newlen <- %R6
	@DEBUG_VALUE: append:alen <- %R6
	mov	r5, #16
.Ltmp47:
	.loc	3 79 5 is_stmt 1 discriminator 1 @ /root/Bela/projects/rnbo.example.bela-main/rnbo/common/RNBO_String.h:79:5
	cmp	r6, #16
	blo	.LBB1_3
.Ltmp48:
@ BB#1:                                 @ %.lr.ph.i.preheader
	@DEBUG_VALUE: append:alen <- %R6
	@DEBUG_VALUE: append:newlen <- %R6
	mov	r0, #16
.Ltmp49:
.LBB1_2:                                @ %.lr.ph.i
                                        @ =>This Inner Loop Header: Depth=1
	.loc	3 80 15                 @ /root/Bela/projects/rnbo.example.bela-main/rnbo/common/RNBO_String.h:80:15
	lsl	r5, r0, #1
	.loc	3 79 5 discriminator 1  @ /root/Bela/projects/rnbo.example.bela-main/rnbo/common/RNBO_String.h:79:5
	cmp	r6, r0, lsl #1
.Ltmp50:
	.loc	3 191 4                 @ /root/Bela/projects/rnbo.example.bela-main/rnbo/common/RNBO_String.h:191:4
	mov	r0, r5
	bhs	.LBB1_2
.LBB1_3:                                @ %_ZN4RNBO6String6appendEPKc.exit
.Ltmp51:
	.loc	3 81 12                 @ /root/Bela/projects/rnbo.example.bela-main/rnbo/common/RNBO_String.h:81:12
	mov	r0, r5
	bl	_Znaj
	mov	r8, r0
.Ltmp52:
	@DEBUG_VALUE: oldptr <- %R8
	.loc	16 63 11                @ /root/Bela/projects/rnbo.example.bela-main/rnbo/common/RNBO_PlatformInterface.h:63:11
	movw	r0, :lower16:_ZZN4RNBO8Platform8instanceEvE9pInstance
	movt	r0, :upper16:_ZZN4RNBO8Platform8instanceEvE9pInstance
.Ltmp53:
	.loc	3 82 22 discriminator 1 @ /root/Bela/projects/rnbo.example.bela-main/rnbo/common/RNBO_String.h:82:22
	mov	r2, #0
	mov	r4, r0
	mov	r3, #0
.Ltmp54:
	.loc	16 63 11                @ /root/Bela/projects/rnbo.example.bela-main/rnbo/common/RNBO_PlatformInterface.h:63:11
	ldr	r0, [r4]
	mov	r9, #0
.Ltmp55:
	@DEBUG_VALUE: oldptr <- %R9
	.loc	3 82 22                 @ /root/Bela/projects/rnbo.example.bela-main/rnbo/common/RNBO_String.h:82:22
	ldr	r1, [r0]
	ldr	r7, [r1, #32]
	.loc	3 82 22 is_stmt 0 discriminator 1 @ /root/Bela/projects/rnbo.example.bela-main/rnbo/common/RNBO_String.h:82:22
	mov	r1, r8
	blx	r7
.Ltmp56:
	.loc	16 63 11 is_stmt 1      @ /root/Bela/projects/rnbo.example.bela-main/rnbo/common/RNBO_PlatformInterface.h:63:11
	ldr	r0, [r4]
.Ltmp57:
	.loc	3 86 21 discriminator 1 @ /root/Bela/projects/rnbo.example.bela-main/rnbo/common/RNBO_String.h:86:21
	mov	r2, r10
	mov	r3, r6
	.loc	3 86 21 is_stmt 0       @ /root/Bela/projects/rnbo.example.bela-main/rnbo/common/RNBO_String.h:86:21
	ldr	r1, [r0]
	ldr	r7, [r1, #32]
	.loc	3 86 21 discriminator 1 @ /root/Bela/projects/rnbo.example.bela-main/rnbo/common/RNBO_String.h:86:21
	mov	r1, r8
	blx	r7
.Ltmp58:
	.loc	16 63 11 is_stmt 1      @ /root/Bela/projects/rnbo.example.bela-main/rnbo/common/RNBO_PlatformInterface.h:63:11
	ldr	r0, [r4]
.Ltmp59:
	.loc	3 87 17                 @ /root/Bela/projects/rnbo.example.bela-main/rnbo/common/RNBO_String.h:87:17
	strb	r9, [r8, r6]
.Ltmp60:
	.loc	3 72 35                 @ /root/Bela/projects/rnbo.example.bela-main/rnbo/common/RNBO_String.h:72:35
	ldr	r1, [r0]
	ldr	r2, [r1, #44]
	.loc	3 72 35 is_stmt 0 discriminator 2 @ /root/Bela/projects/rnbo.example.bela-main/rnbo/common/RNBO_String.h:72:35
.Ltmp1:
	movw	r1, :lower16:.L.str.5
	mov	r7, r8
	movt	r1, :upper16:.L.str.5
.Ltmp61:
	@DEBUG_VALUE: append:astr <- %R1
	blx	r2
.Ltmp62:
	str	r0, [sp, #4]            @ 4-byte Spill
.Ltmp2:
.Ltmp63:
@ BB#4:                                 @ %.noexc
	@DEBUG_VALUE: oldptr <- %R9
	@DEBUG_VALUE: oldptr <- %R8
	ldr	r3, [sp, #4]            @ 4-byte Reload
	.loc	3 73 25 is_stmt 1       @ /root/Bela/projects/rnbo.example.bela-main/rnbo/common/RNBO_String.h:73:25
	add	r10, r3, r6
.Ltmp64:
	@DEBUG_VALUE: append:newlen <- %R10
	.loc	3 75 8                  @ /root/Bela/projects/rnbo.example.bela-main/rnbo/common/RNBO_String.h:75:8
	cmp	r10, r5
	bhs	.LBB1_6
.Ltmp65:
@ BB#5:
	@DEBUG_VALUE: append:newlen <- %R10
	@DEBUG_VALUE: oldptr <- %R9
	@DEBUG_VALUE: oldptr <- %R8
	mov	r4, r5
	mov	r9, r8
.Ltmp66:
	b	.LBB1_12
.Ltmp67:
.LBB1_6:                                @ %.preheader.i4
	@DEBUG_VALUE: append:newlen <- %R10
	@DEBUG_VALUE: oldptr <- %R9
	@DEBUG_VALUE: oldptr <- %R8
	.loc	3 78 9                  @ /root/Bela/projects/rnbo.example.bela-main/rnbo/common/RNBO_String.h:78:9
	cmp	r5, #16
	movwlo	r5, #16
	.loc	3 79 5 discriminator 1  @ /root/Bela/projects/rnbo.example.bela-main/rnbo/common/RNBO_String.h:79:5
	cmp	r10, r5
	bhs	.LBB1_8
.Ltmp68:
@ BB#7:
	@DEBUG_VALUE: append:newlen <- %R10
	@DEBUG_VALUE: oldptr <- %R9
	@DEBUG_VALUE: oldptr <- %R8
	mov	r4, r5
	b	.LBB1_9
.Ltmp69:
.LBB1_8:                                @ %.lr.ph.i5
                                        @ =>This Inner Loop Header: Depth=1
	.loc	3 80 15                 @ /root/Bela/projects/rnbo.example.bela-main/rnbo/common/RNBO_String.h:80:15
	lsl	r4, r5, #1
	.loc	3 79 5 discriminator 1  @ /root/Bela/projects/rnbo.example.bela-main/rnbo/common/RNBO_String.h:79:5
	cmp	r10, r5, lsl #1
.Ltmp70:
	.loc	3 141 46                @ /root/Bela/projects/rnbo.example.bela-main/rnbo/common/RNBO_String.h:141:46
	mov	r5, r4
	bhs	.LBB1_8
.LBB1_9:                                @ %._crit_edge.i6
.Ltmp71:
	.loc	3 81 12                 @ /root/Bela/projects/rnbo.example.bela-main/rnbo/common/RNBO_String.h:81:12
.Ltmp3:
	mov	r0, r4
	mov	r7, r8
	bl	_Znaj
	mov	r9, r0
.Ltmp4:
.Ltmp72:
@ BB#10:                                @ %.noexc8
	.loc	16 63 11                @ /root/Bela/projects/rnbo.example.bela-main/rnbo/common/RNBO_PlatformInterface.h:63:11
	movw	r0, :lower16:_ZZN4RNBO8Platform8instanceEvE9pInstance
	movt	r0, :upper16:_ZZN4RNBO8Platform8instanceEvE9pInstance
.Ltmp73:
	.loc	16 63 11 is_stmt 0      @ /root/Bela/projects/rnbo.example.bela-main/rnbo/common/RNBO_PlatformInterface.h:63:11
	ldr	r0, [r0]
.Ltmp74:
	.loc	3 82 22 is_stmt 1       @ /root/Bela/projects/rnbo.example.bela-main/rnbo/common/RNBO_String.h:82:22
	ldr	r1, [r0]
	ldr	r5, [r1, #32]
	.loc	3 82 22 is_stmt 0 discriminator 1 @ /root/Bela/projects/rnbo.example.bela-main/rnbo/common/RNBO_String.h:82:22
.Ltmp5:
	mov	r1, r9
	mov	r2, r8
	mov	r3, r6
	mov	r7, r9
	blx	r5
.Ltmp6:
@ BB#11:                                @ %.noexc9
.Ltmp75:
	.loc	3 84 6 is_stmt 1 discriminator 1 @ /root/Bela/projects/rnbo.example.bela-main/rnbo/common/RNBO_String.h:84:6
	mov	r0, r8
	bl	_ZdaPv
	ldr	r3, [sp, #4]            @ 4-byte Reload
.Ltmp76:
.LBB1_12:                               @ %._crit_edge18.i
	@DEBUG_VALUE: append:alen <- %R3
	.loc	16 63 11                @ /root/Bela/projects/rnbo.example.bela-main/rnbo/common/RNBO_PlatformInterface.h:63:11
	movw	r0, :lower16:_ZZN4RNBO8Platform8instanceEvE9pInstance
	movt	r0, :upper16:_ZZN4RNBO8Platform8instanceEvE9pInstance
.Ltmp77:
	.loc	16 63 11 is_stmt 0      @ /root/Bela/projects/rnbo.example.bela-main/rnbo/common/RNBO_PlatformInterface.h:63:11
	ldr	r0, [r0]
.Ltmp78:
	.loc	3 86 21 is_stmt 1       @ /root/Bela/projects/rnbo.example.bela-main/rnbo/common/RNBO_String.h:86:21
	ldr	r1, [r0]
	ldr	r5, [r1, #32]
.Ltmp79:
	@DEBUG_VALUE: oldptr <- %R9
	.loc	3 86 33 is_stmt 0       @ /root/Bela/projects/rnbo.example.bela-main/rnbo/common/RNBO_String.h:86:33
	add	r1, r9, r6
	.loc	3 86 21 discriminator 1 @ /root/Bela/projects/rnbo.example.bela-main/rnbo/common/RNBO_String.h:86:21
.Ltmp7:
	movw	r2, :lower16:.L.str.5
	mov	r7, r9
	movt	r2, :upper16:.L.str.5
	blx	r5
.Ltmp80:
.Ltmp8:
.Ltmp81:
@ BB#13:
	@DEBUG_VALUE: oldptr <- %R9
	.loc	3 87 17 is_stmt 1       @ /root/Bela/projects/rnbo.example.bela-main/rnbo/common/RNBO_String.h:87:17
	mov	r0, #0
	mov	r7, r9
	strb	r0, [r9, r10]
.Ltmp82:
	.loc	16 63 11                @ /root/Bela/projects/rnbo.example.bela-main/rnbo/common/RNBO_PlatformInterface.h:63:11
	movw	r0, :lower16:_ZZN4RNBO8Platform8instanceEvE9pInstance
	movt	r0, :upper16:_ZZN4RNBO8Platform8instanceEvE9pInstance
.Ltmp83:
	.loc	16 63 11 is_stmt 0      @ /root/Bela/projects/rnbo.example.bela-main/rnbo/common/RNBO_PlatformInterface.h:63:11
	ldr	r0, [r0]
.Ltmp84:
	.loc	3 72 35 is_stmt 1       @ /root/Bela/projects/rnbo.example.bela-main/rnbo/common/RNBO_String.h:72:35
	ldr	r1, [r0]
	ldr	r2, [r1, #44]
	.loc	3 72 35 is_stmt 0 discriminator 2 @ /root/Bela/projects/rnbo.example.bela-main/rnbo/common/RNBO_String.h:72:35
.Ltmp9:
.Ltmp85:
	@DEBUG_VALUE: append:astr <- [%SP+8]
	ldr	r1, [sp, #8]            @ 4-byte Reload
	blx	r2
.Ltmp86:
	str	r0, [sp, #4]            @ 4-byte Spill
.Ltmp10:
.Ltmp87:
@ BB#14:                                @ %.noexc20
	@DEBUG_VALUE: oldptr <- %R9
	ldr	r3, [sp, #4]            @ 4-byte Reload
	.loc	3 73 25 is_stmt 1       @ /root/Bela/projects/rnbo.example.bela-main/rnbo/common/RNBO_String.h:73:25
	add	r6, r3, r10
.Ltmp88:
	@DEBUG_VALUE: append:newlen <- %R6
	.loc	3 75 8                  @ /root/Bela/projects/rnbo.example.bela-main/rnbo/common/RNBO_String.h:75:8
	cmp	r6, r4
	bhs	.LBB1_16
.Ltmp89:
@ BB#15:
	@DEBUG_VALUE: append:newlen <- %R6
	@DEBUG_VALUE: oldptr <- %R9
	mov	r5, r4
	mov	r8, r9
	b	.LBB1_22
.Ltmp90:
.LBB1_16:                               @ %.preheader.i15
	@DEBUG_VALUE: append:newlen <- %R6
	@DEBUG_VALUE: oldptr <- %R9
	.loc	3 78 9                  @ /root/Bela/projects/rnbo.example.bela-main/rnbo/common/RNBO_String.h:78:9
	cmp	r4, #16
	movwlo	r4, #16
	.loc	3 79 5 discriminator 1  @ /root/Bela/projects/rnbo.example.bela-main/rnbo/common/RNBO_String.h:79:5
	cmp	r6, r4
	bhs	.LBB1_18
.Ltmp91:
@ BB#17:
	@DEBUG_VALUE: append:newlen <- %R6
	@DEBUG_VALUE: oldptr <- %R9
	mov	r5, r4
	b	.LBB1_19
.Ltmp92:
.LBB1_18:                               @ %.lr.ph.i16
                                        @ =>This Inner Loop Header: Depth=1
	.loc	3 80 15                 @ /root/Bela/projects/rnbo.example.bela-main/rnbo/common/RNBO_String.h:80:15
	lsl	r5, r4, #1
	.loc	3 79 5 discriminator 1  @ /root/Bela/projects/rnbo.example.bela-main/rnbo/common/RNBO_String.h:79:5
	cmp	r6, r4, lsl #1
.Ltmp93:
	.loc	3 141 46                @ /root/Bela/projects/rnbo.example.bela-main/rnbo/common/RNBO_String.h:141:46
	mov	r4, r5
	bhs	.LBB1_18
.LBB1_19:                               @ %._crit_edge.i17
.Ltmp94:
	.loc	3 81 12                 @ /root/Bela/projects/rnbo.example.bela-main/rnbo/common/RNBO_String.h:81:12
.Ltmp11:
	mov	r0, r5
	mov	r7, r9
	bl	_Znaj
	mov	r8, r0
.Ltmp12:
.Ltmp95:
@ BB#20:                                @ %.noexc21
	.loc	16 63 11                @ /root/Bela/projects/rnbo.example.bela-main/rnbo/common/RNBO_PlatformInterface.h:63:11
	movw	r0, :lower16:_ZZN4RNBO8Platform8instanceEvE9pInstance
	movt	r0, :upper16:_ZZN4RNBO8Platform8instanceEvE9pInstance
.Ltmp96:
	.loc	16 63 11 is_stmt 0      @ /root/Bela/projects/rnbo.example.bela-main/rnbo/common/RNBO_PlatformInterface.h:63:11
	ldr	r0, [r0]
.Ltmp97:
	.loc	3 82 22 is_stmt 1       @ /root/Bela/projects/rnbo.example.bela-main/rnbo/common/RNBO_String.h:82:22
	ldr	r1, [r0]
	ldr	r4, [r1, #32]
	.loc	3 82 22 is_stmt 0 discriminator 1 @ /root/Bela/projects/rnbo.example.bela-main/rnbo/common/RNBO_String.h:82:22
.Ltmp13:
	mov	r1, r8
	mov	r2, r9
	mov	r3, r10
	mov	r7, r8
	blx	r4
.Ltmp14:
@ BB#21:                                @ %.noexc22
.Ltmp98:
	.loc	3 84 6 is_stmt 1 discriminator 1 @ /root/Bela/projects/rnbo.example.bela-main/rnbo/common/RNBO_String.h:84:6
	mov	r0, r9
	bl	_ZdaPv
	ldr	r3, [sp, #4]            @ 4-byte Reload
.Ltmp99:
.LBB1_22:                               @ %._crit_edge18.i19
	@DEBUG_VALUE: append:alen <- %R3
	.loc	16 63 11                @ /root/Bela/projects/rnbo.example.bela-main/rnbo/common/RNBO_PlatformInterface.h:63:11
	movw	r0, :lower16:_ZZN4RNBO8Platform8instanceEvE9pInstance
	movt	r0, :upper16:_ZZN4RNBO8Platform8instanceEvE9pInstance
.Ltmp100:
	.loc	16 63 11 is_stmt 0      @ /root/Bela/projects/rnbo.example.bela-main/rnbo/common/RNBO_PlatformInterface.h:63:11
	ldr	r0, [r0]
.Ltmp101:
	.loc	3 86 21 is_stmt 1       @ /root/Bela/projects/rnbo.example.bela-main/rnbo/common/RNBO_String.h:86:21
	ldr	r1, [r0]
	ldr	r4, [r1, #32]
.Ltmp102:
	@DEBUG_VALUE: oldptr <- %R8
	.loc	3 86 33 is_stmt 0       @ /root/Bela/projects/rnbo.example.bela-main/rnbo/common/RNBO_String.h:86:33
	add	r1, r8, r10
	.loc	3 86 21 discriminator 1 @ /root/Bela/projects/rnbo.example.bela-main/rnbo/common/RNBO_String.h:86:21
.Ltmp15:
	ldr	r2, [sp, #8]            @ 4-byte Reload
	mov	r7, r8
	blx	r4
.Ltmp103:
.Ltmp16:
.Ltmp104:
@ BB#23:
	@DEBUG_VALUE: oldptr <- %R8
	.loc	3 87 17 is_stmt 1       @ /root/Bela/projects/rnbo.example.bela-main/rnbo/common/RNBO_String.h:87:17
	mov	r0, #0
	mov	r7, r8
	strb	r0, [r8, r6]
.Ltmp105:
	.loc	16 63 11                @ /root/Bela/projects/rnbo.example.bela-main/rnbo/common/RNBO_PlatformInterface.h:63:11
	movw	r0, :lower16:_ZZN4RNBO8Platform8instanceEvE9pInstance
	movt	r0, :upper16:_ZZN4RNBO8Platform8instanceEvE9pInstance
.Ltmp106:
	.loc	16 63 11 is_stmt 0      @ /root/Bela/projects/rnbo.example.bela-main/rnbo/common/RNBO_PlatformInterface.h:63:11
	ldr	r0, [r0]
.Ltmp107:
	.loc	3 72 35 is_stmt 1       @ /root/Bela/projects/rnbo.example.bela-main/rnbo/common/RNBO_String.h:72:35
	ldr	r1, [r0]
	ldr	r2, [r1, #44]
	.loc	3 72 35 is_stmt 0 discriminator 2 @ /root/Bela/projects/rnbo.example.bela-main/rnbo/common/RNBO_String.h:72:35
.Ltmp17:
	movw	r1, :lower16:.L.str.6
	movt	r1, :upper16:.L.str.6
.Ltmp108:
	@DEBUG_VALUE: append:astr <- %R1
	blx	r2
.Ltmp109:
	mov	r9, r0
.Ltmp18:
.Ltmp110:
@ BB#24:                                @ %.noexc33
	@DEBUG_VALUE: oldptr <- %R8
	.loc	3 73 25 is_stmt 1       @ /root/Bela/projects/rnbo.example.bela-main/rnbo/common/RNBO_String.h:73:25
	add	r4, r9, r6
.Ltmp111:
	@DEBUG_VALUE: append:newlen <- %R4
	.loc	3 75 8                  @ /root/Bela/projects/rnbo.example.bela-main/rnbo/common/RNBO_String.h:75:8
	cmp	r4, r5
	bhs	.LBB1_26
.Ltmp112:
@ BB#25:
	@DEBUG_VALUE: append:newlen <- %R4
	@DEBUG_VALUE: oldptr <- %R8
	mov	r7, r8
	b	.LBB1_32
.Ltmp113:
.LBB1_26:                               @ %.preheader.i28
	@DEBUG_VALUE: append:newlen <- %R4
	@DEBUG_VALUE: oldptr <- %R8
	.loc	3 78 9                  @ /root/Bela/projects/rnbo.example.bela-main/rnbo/common/RNBO_String.h:78:9
	cmp	r5, #16
	movwlo	r5, #16
	.loc	3 79 5 discriminator 1  @ /root/Bela/projects/rnbo.example.bela-main/rnbo/common/RNBO_String.h:79:5
	cmp	r4, r5
	bhs	.LBB1_28
.Ltmp114:
@ BB#27:
	@DEBUG_VALUE: append:newlen <- %R4
	@DEBUG_VALUE: oldptr <- %R8
	.loc	3 141 46                @ /root/Bela/projects/rnbo.example.bela-main/rnbo/common/RNBO_String.h:141:46
	mov	r0, r5
	b	.LBB1_29
.Ltmp115:
.LBB1_28:                               @ %.lr.ph.i29
                                        @ =>This Inner Loop Header: Depth=1
	.loc	3 80 15                 @ /root/Bela/projects/rnbo.example.bela-main/rnbo/common/RNBO_String.h:80:15
	lsl	r0, r5, #1
	.loc	3 79 5 discriminator 1  @ /root/Bela/projects/rnbo.example.bela-main/rnbo/common/RNBO_String.h:79:5
	cmp	r4, r5, lsl #1
.Ltmp116:
	.loc	3 141 46                @ /root/Bela/projects/rnbo.example.bela-main/rnbo/common/RNBO_String.h:141:46
	mov	r5, r0
	bhs	.LBB1_28
.LBB1_29:                               @ %._crit_edge.i30
.Ltmp117:
	.loc	3 81 12                 @ /root/Bela/projects/rnbo.example.bela-main/rnbo/common/RNBO_String.h:81:12
.Ltmp19:
	mov	r7, r8
	bl	_Znaj
	mov	r5, r0
.Ltmp20:
.Ltmp118:
@ BB#30:                                @ %.noexc34
	.loc	16 63 11                @ /root/Bela/projects/rnbo.example.bela-main/rnbo/common/RNBO_PlatformInterface.h:63:11
	movw	r0, :lower16:_ZZN4RNBO8Platform8instanceEvE9pInstance
	movt	r0, :upper16:_ZZN4RNBO8Platform8instanceEvE9pInstance
.Ltmp119:
	.loc	16 63 11 is_stmt 0      @ /root/Bela/projects/rnbo.example.bela-main/rnbo/common/RNBO_PlatformInterface.h:63:11
	ldr	r0, [r0]
.Ltmp120:
	.loc	3 82 22 is_stmt 1       @ /root/Bela/projects/rnbo.example.bela-main/rnbo/common/RNBO_String.h:82:22
	ldr	r1, [r0]
	ldr	r12, [r1, #32]
	.loc	3 82 22 is_stmt 0 discriminator 1 @ /root/Bela/projects/rnbo.example.bela-main/rnbo/common/RNBO_String.h:82:22
.Ltmp21:
	mov	r1, r5
	mov	r2, r8
	mov	r3, r6
	mov	r7, r5
	blx	r12
.Ltmp22:
@ BB#31:                                @ %.noexc35
.Ltmp121:
	.loc	3 84 6 is_stmt 1 discriminator 1 @ /root/Bela/projects/rnbo.example.bela-main/rnbo/common/RNBO_String.h:84:6
	mov	r0, r8
	bl	_ZdaPv
	mov	r7, r5
.Ltmp122:
.LBB1_32:                               @ %._crit_edge18.i32
	@DEBUG_VALUE: append:alen <- %R9
	.loc	16 63 11                @ /root/Bela/projects/rnbo.example.bela-main/rnbo/common/RNBO_PlatformInterface.h:63:11
	movw	r0, :lower16:_ZZN4RNBO8Platform8instanceEvE9pInstance
	movt	r0, :upper16:_ZZN4RNBO8Platform8instanceEvE9pInstance
.Ltmp123:
	.loc	16 63 11 is_stmt 0      @ /root/Bela/projects/rnbo.example.bela-main/rnbo/common/RNBO_PlatformInterface.h:63:11
	ldr	r0, [r0]
.Ltmp124:
	.loc	3 86 21 is_stmt 1       @ /root/Bela/projects/rnbo.example.bela-main/rnbo/common/RNBO_String.h:86:21
	ldr	r1, [r0]
	ldr	r5, [r1, #32]
	.loc	3 86 33 is_stmt 0       @ /root/Bela/projects/rnbo.example.bela-main/rnbo/common/RNBO_String.h:86:33
	add	r1, r7, r6
	.loc	3 86 21 discriminator 1 @ /root/Bela/projects/rnbo.example.bela-main/rnbo/common/RNBO_String.h:86:21
.Ltmp23:
	movw	r2, :lower16:.L.str.6
	mov	r3, r9
	movt	r2, :upper16:.L.str.6
	blx	r5
.Ltmp24:
.Ltmp125:
@ BB#33:
	@DEBUG_VALUE: append:alen <- %R9
	.loc	3 87 17 is_stmt 1       @ /root/Bela/projects/rnbo.example.bela-main/rnbo/common/RNBO_String.h:87:17
	mov	r0, #0
	strb	r0, [r7, r4]
.Ltmp126:
	.loc	16 63 11                @ /root/Bela/projects/rnbo.example.bela-main/rnbo/common/RNBO_PlatformInterface.h:63:11
	movw	r0, :lower16:_ZZN4RNBO8Platform8instanceEvE9pInstance
	movt	r0, :upper16:_ZZN4RNBO8Platform8instanceEvE9pInstance
.Ltmp127:
	.loc	16 63 11 is_stmt 0      @ /root/Bela/projects/rnbo.example.bela-main/rnbo/common/RNBO_PlatformInterface.h:63:11
	ldr	r0, [r0]
.Ltmp128:
	.loc	6 38 20 is_stmt 1 discriminator 1 @ /root/Bela/projects/rnbo.example.bela-main/rnbo/src/RNBO_Logger.cpp:38:20
	ldr	r1, [r0]
	ldr	r2, [r1, #8]
	.loc	6 38 20 is_stmt 0 discriminator 2 @ /root/Bela/projects/rnbo.example.bela-main/rnbo/src/RNBO_Logger.cpp:38:20
.Ltmp25:
	mov	r1, r7
	blx	r2
.Ltmp26:
.Ltmp129:
@ BB#34:                                @ %_ZN4RNBO6StringD2Ev.exit
	@DEBUG_VALUE: append:alen <- %R9
	.loc	3 44 15 is_stmt 1 discriminator 1 @ /root/Bela/projects/rnbo.example.bela-main/rnbo/common/RNBO_String.h:44:15
	mov	r0, r7
	sub	sp, r11, #28
	pop	{r4, r5, r6, r7, r8, r9, r10, r11, lr}
.Ltmp130:
	b	_ZdaPv
.Ltmp131:
.LBB1_35:                               @ %_ZN4RNBO6StringD2Ev.exit38
.Ltmp27:
	mov	r4, r0
.Ltmp132:
	.loc	3 44 15 is_stmt 0 discriminator 1 @ /root/Bela/projects/rnbo.example.bela-main/rnbo/common/RNBO_String.h:44:15
	mov	r0, r7
	bl	_ZdaPv
	mov	r0, r4
	mov	lr, pc
	b	_Unwind_Resume
.Ltmp133:
.Lfunc_end1:
	.size	_ZN4RNBO6Logger24defaultLogOutputFunctionENS_8LogLevelEPKc, .Lfunc_end1-_ZN4RNBO6Logger24defaultLogOutputFunctionENS_8LogLevelEPKc
	.cfi_endproc
	.globl	__gxx_personality_v0
	.personality __gxx_personality_v0
	.handlerdata
	.p2align	2
GCC_except_table1:
.Lexception0:
	.byte	255                     @ @LPStart Encoding = omit
	.byte	0                       @ @TType Encoding = absptr
	.byte	41                      @ @TType base offset
	.byte	3                       @ Call site Encoding = udata4
	.byte	39                      @ Call site table length
	.long	.Lfunc_begin1-.Lfunc_begin1 @ >> Call Site 1 <<
	.long	.Ltmp1-.Lfunc_begin1    @   Call between .Lfunc_begin1 and .Ltmp1
	.long	0                       @     has no landing pad
	.byte	0                       @   On action: cleanup
	.long	.Ltmp1-.Lfunc_begin1    @ >> Call Site 2 <<
	.long	.Ltmp26-.Ltmp1          @   Call between .Ltmp1 and .Ltmp26
	.long	.Ltmp27-.Lfunc_begin1   @     jumps to .Ltmp27
	.byte	0                       @   On action: cleanup
	.long	.Ltmp26-.Lfunc_begin1   @ >> Call Site 3 <<
	.long	.Lfunc_end1-.Ltmp26     @   Call between .Ltmp26 and .Lfunc_end1
	.long	0                       @     has no landing pad
	.byte	0                       @   On action: cleanup
	.p2align	2
	.fnend

	.globl	_ZN4RNBO6LoggerD2Ev
	.p2align	2
	.type	_ZN4RNBO6LoggerD2Ev,%function
_ZN4RNBO6LoggerD2Ev:                    @ @_ZN4RNBO6LoggerD2Ev
.Lfunc_begin2:
	.loc	6 23 0 is_stmt 1        @ /root/Bela/projects/rnbo.example.bela-main/rnbo/src/RNBO_Logger.cpp:23:0
	.fnstart
	.cfi_startproc
@ BB#0:
	@DEBUG_VALUE: ~Logger:this <- %R0
	.loc	6 24 2 prologue_end     @ /root/Bela/projects/rnbo.example.bela-main/rnbo/src/RNBO_Logger.cpp:24:2
	bx	lr
.Ltmp134:
.Lfunc_end2:
	.size	_ZN4RNBO6LoggerD2Ev, .Lfunc_end2-_ZN4RNBO6LoggerD2Ev
	.cfi_endproc
	.fnend

	.globl	_ZN4RNBO6LoggerD0Ev
	.p2align	2
	.type	_ZN4RNBO6LoggerD0Ev,%function
_ZN4RNBO6LoggerD0Ev:                    @ @_ZN4RNBO6LoggerD0Ev
.Lfunc_begin3:
	.loc	6 23 0                  @ /root/Bela/projects/rnbo.example.bela-main/rnbo/src/RNBO_Logger.cpp:23:0
	.fnstart
	.cfi_startproc
@ BB#0:
	@DEBUG_VALUE: ~Logger:this <- %R0
	.loc	6 23 2 prologue_end discriminator 1 @ /root/Bela/projects/rnbo.example.bela-main/rnbo/src/RNBO_Logger.cpp:23:2
	b	_ZdlPv
.Ltmp135:
.Lfunc_end3:
	.size	_ZN4RNBO6LoggerD0Ev, .Lfunc_end3-_ZN4RNBO6LoggerD0Ev
	.cfi_endproc
	.fnend

	.globl	_ZN4RNBO6Logger23setLoggerOutputCallbackEPFvNS_8LogLevelEPKcE
	.p2align	2
	.type	_ZN4RNBO6Logger23setLoggerOutputCallbackEPFvNS_8LogLevelEPKcE,%function
_ZN4RNBO6Logger23setLoggerOutputCallbackEPFvNS_8LogLevelEPKcE: @ @_ZN4RNBO6Logger23setLoggerOutputCallbackEPFvNS_8LogLevelEPKcE
.Lfunc_begin4:
	.loc	6 27 0                  @ /root/Bela/projects/rnbo.example.bela-main/rnbo/src/RNBO_Logger.cpp:27:0
	.fnstart
	.cfi_startproc
@ BB#0:
	@DEBUG_VALUE: setLoggerOutputCallback:this <- %R0
	@DEBUG_VALUE: setLoggerOutputCallback:callback <- %R1
	.loc	6 28 21 prologue_end    @ /root/Bela/projects/rnbo.example.bela-main/rnbo/src/RNBO_Logger.cpp:28:21
	movw	r2, :lower16:_ZN4RNBO6Logger24defaultLogOutputFunctionENS_8LogLevelEPKc
	cmp	r1, #0
	movt	r2, :upper16:_ZN4RNBO6Logger24defaultLogOutputFunctionENS_8LogLevelEPKc
	movne	r2, r1
	.loc	6 28 19 is_stmt 0 discriminator 3 @ /root/Bela/projects/rnbo.example.bela-main/rnbo/src/RNBO_Logger.cpp:28:19
	str	r2, [r0, #4]
	.loc	6 29 2 is_stmt 1        @ /root/Bela/projects/rnbo.example.bela-main/rnbo/src/RNBO_Logger.cpp:29:2
	bx	lr
.Ltmp136:
.Lfunc_end4:
	.size	_ZN4RNBO6Logger23setLoggerOutputCallbackEPFvNS_8LogLevelEPKcE, .Lfunc_end4-_ZN4RNBO6Logger23setLoggerOutputCallbackEPFvNS_8LogLevelEPKcE
	.cfi_endproc
	.fnend

	.globl	_ZN4RNBO6Logger11getInstanceEv
	.p2align	2
	.type	_ZN4RNBO6Logger11getInstanceEv,%function
_ZN4RNBO6Logger11getInstanceEv:         @ @_ZN4RNBO6Logger11getInstanceEv
.Lfunc_begin5:
	.loc	6 42 0                  @ /root/Bela/projects/rnbo.example.bela-main/rnbo/src/RNBO_Logger.cpp:42:0
	.fnstart
	.cfi_startproc
@ BB#0:
	.loc	6 43 3 prologue_end     @ /root/Bela/projects/rnbo.example.bela-main/rnbo/src/RNBO_Logger.cpp:43:3
	movw	r0, :lower16:_ZN4RNBOL17s_logger_instanceE
	movt	r0, :upper16:_ZN4RNBOL17s_logger_instanceE
	bx	lr
.Ltmp137:
.Lfunc_end5:
	.size	_ZN4RNBO6Logger11getInstanceEv, .Lfunc_end5-_ZN4RNBO6Logger11getInstanceEv
	.cfi_endproc
	.fnend

	.section	.text._ZN4RNBO6Logger3logENS_8LogLevelEPKc,"axG",%progbits,_ZN4RNBO6Logger3logENS_8LogLevelEPKc,comdat
	.weak	_ZN4RNBO6Logger3logENS_8LogLevelEPKc
	.p2align	2
	.type	_ZN4RNBO6Logger3logENS_8LogLevelEPKc,%function
_ZN4RNBO6Logger3logENS_8LogLevelEPKc:   @ @_ZN4RNBO6Logger3logENS_8LogLevelEPKc
.Lfunc_begin6:
	.loc	2 116 0                 @ /root/Bela/projects/rnbo.example.bela-main/rnbo/common/RNBO_Logger.h:116:0
	.fnstart
	.cfi_startproc
@ BB#0:
	@DEBUG_VALUE: log:this <- %R0
	@DEBUG_VALUE: log:level <- %R1
	@DEBUG_VALUE: log:message <- %R2
	.loc	2 117 3 prologue_end    @ /root/Bela/projects/rnbo.example.bela-main/rnbo/common/RNBO_Logger.h:117:3
	ldr	r3, [r0, #4]
	mov	r0, r1
.Ltmp138:
	@DEBUG_VALUE: log:level <- %R0
	mov	r1, r2
.Ltmp139:
	@DEBUG_VALUE: log:message <- %R1
	bx	r3
.Ltmp140:
.Lfunc_end6:
	.size	_ZN4RNBO6Logger3logENS_8LogLevelEPKc, .Lfunc_end6-_ZN4RNBO6Logger3logENS_8LogLevelEPKc
	.cfi_endproc
	.fnend

	.section	.text._ZNSt6vectorIN4RNBO21DynamicSymbolRegistry13DynamicSymbolESaIS2_EED2Ev,"axG",%progbits,_ZNSt6vectorIN4RNBO21DynamicSymbolRegistry13DynamicSymbolESaIS2_EED2Ev,comdat
	.weak	_ZNSt6vectorIN4RNBO21DynamicSymbolRegistry13DynamicSymbolESaIS2_EED2Ev
	.p2align	2
	.type	_ZNSt6vectorIN4RNBO21DynamicSymbolRegistry13DynamicSymbolESaIS2_EED2Ev,%function
_ZNSt6vectorIN4RNBO21DynamicSymbolRegistry13DynamicSymbolESaIS2_EED2Ev: @ @_ZNSt6vectorIN4RNBO21DynamicSymbolRegistry13DynamicSymbolESaIS2_EED2Ev
.Lfunc_begin7:
	.loc	14 426 0                @ /usr/bin/../lib/gcc/arm-linux-gnueabihf/6.3.0/../../../../include/c++/6.3.0/bits/stl_vector.h:426:0
	.fnstart
	.cfi_startproc
@ BB#0:
	.save	{r4, r10, r11, lr}
	push	{r4, r10, r11, lr}
.Ltmp141:
	.cfi_def_cfa_offset 16
.Ltmp142:
	.cfi_offset lr, -4
.Ltmp143:
	.cfi_offset r11, -8
.Ltmp144:
	.cfi_offset r10, -12
.Ltmp145:
	.cfi_offset r4, -16
	.setfp	r11, sp, #8
	add	r11, sp, #8
.Ltmp146:
	.cfi_def_cfa r11, 8
	@DEBUG_VALUE: ~vector:this <- %R0
	mov	r4, r0
.Ltmp147:
	@DEBUG_VALUE: ~vector:this <- %R4
	.loc	14 160 37 prologue_end  @ /usr/bin/../lib/gcc/arm-linux-gnueabihf/6.3.0/../../../../include/c++/6.3.0/bits/stl_vector.h:160:37
	ldr	r0, [r4]
.Ltmp148:
	@DEBUG_VALUE: _M_deallocate:__p <- %R0
	@DEBUG_VALUE: deallocate:__p <- %R0
	@DEBUG_VALUE: deallocate:__p <- %R0
	.loc	14 177 6                @ /usr/bin/../lib/gcc/arm-linux-gnueabihf/6.3.0/../../../../include/c++/6.3.0/bits/stl_vector.h:177:6
	cmp	r0, #0
	beq	.LBB7_2
.Ltmp149:
@ BB#1:
	@DEBUG_VALUE: deallocate:__p <- %R0
	@DEBUG_VALUE: deallocate:__p <- %R0
	@DEBUG_VALUE: _M_deallocate:__p <- %R0
	@DEBUG_VALUE: ~vector:this <- %R4
	.loc	10 110 9                @ /usr/bin/../lib/gcc/arm-linux-gnueabihf/6.3.0/../../../../include/c++/6.3.0/ext/new_allocator.h:110:9
	bl	_ZdlPv
.Ltmp150:
.LBB7_2:                                @ %_ZNSt12_Vector_baseIN4RNBO21DynamicSymbolRegistry13DynamicSymbolESaIS2_EED2Ev.exit
	@DEBUG_VALUE: ~vector:this <- %R4
	.loc	14 427 33 discriminator 1 @ /usr/bin/../lib/gcc/arm-linux-gnueabihf/6.3.0/../../../../include/c++/6.3.0/bits/stl_vector.h:427:33
	mov	r0, r4
	pop	{r4, r10, r11, pc}
.Ltmp151:
.Lfunc_end7:
	.size	_ZNSt6vectorIN4RNBO21DynamicSymbolRegistry13DynamicSymbolESaIS2_EED2Ev, .Lfunc_end7-_ZNSt6vectorIN4RNBO21DynamicSymbolRegistry13DynamicSymbolESaIS2_EED2Ev
	.cfi_endproc
	.fnend

	.section	.text.startup,"ax",%progbits
	.p2align	2
	.type	_GLOBAL__sub_I_RNBO_Logger.ii,%function
_GLOBAL__sub_I_RNBO_Logger.ii:          @ @_GLOBAL__sub_I_RNBO_Logger.ii
.Lfunc_begin8:
	.loc	25 0 0                  @ /root/Bela/projects/rnbo.example.bela-main/build/rnbo/src/RNBO_Logger.cpp:0:0
	.fnstart
	.cfi_startproc
@ BB#0:
	.save	{r4, r5, r6, r7, r8, r9, r10, r11, lr}
	push	{r4, r5, r6, r7, r8, r9, r10, r11, lr}
.Ltmp152:
	.cfi_def_cfa_offset 36
.Ltmp153:
	.cfi_offset lr, -4
.Ltmp154:
	.cfi_offset r11, -8
.Ltmp155:
	.cfi_offset r10, -12
.Ltmp156:
	.cfi_offset r9, -16
.Ltmp157:
	.cfi_offset r8, -20
.Ltmp158:
	.cfi_offset r7, -24
.Ltmp159:
	.cfi_offset r6, -28
.Ltmp160:
	.cfi_offset r5, -32
.Ltmp161:
	.cfi_offset r4, -36
	.setfp	r11, sp, #28
	add	r11, sp, #28
.Ltmp162:
	.cfi_def_cfa r11, 8
	.pad	#252
	sub	sp, sp, #252
.Ltmp163:
	.loc	6 19 2 prologue_end     @ /root/Bela/projects/rnbo.example.bela-main/rnbo/src/RNBO_Logger.cpp:19:2
	movw	r0, :lower16:_ZTVN4RNBO6LoggerE
	movw	r1, :lower16:_ZN4RNBOL17s_logger_instanceE
	movt	r0, :upper16:_ZTVN4RNBO6LoggerE
	.loc	6 18 4                  @ /root/Bela/projects/rnbo.example.bela-main/rnbo/src/RNBO_Logger.cpp:18:4
	movw	r2, :lower16:_ZN4RNBO6Logger24defaultLogOutputFunctionENS_8LogLevelEPKc
	.loc	6 19 2                  @ /root/Bela/projects/rnbo.example.bela-main/rnbo/src/RNBO_Logger.cpp:19:2
	add	r0, r0, #8
	movt	r1, :upper16:_ZN4RNBOL17s_logger_instanceE
.Ltmp164:
	@DEBUG_VALUE: Logger:this <- %R1
	.loc	6 18 4                  @ /root/Bela/projects/rnbo.example.bela-main/rnbo/src/RNBO_Logger.cpp:18:4
	movt	r2, :upper16:_ZN4RNBO6Logger24defaultLogOutputFunctionENS_8LogLevelEPKc
	.loc	6 19 2                  @ /root/Bela/projects/rnbo.example.bela-main/rnbo/src/RNBO_Logger.cpp:19:2
	stm	r1, {r0, r2}
.Ltmp165:
	.loc	7 28 4                  @ /root/Bela/projects/rnbo.example.bela-main/rnbo/src/RNBO_DynamicSymbolRegistry.h:28:4
	movw	r0, :lower16:_ZGVZN4RNBO21DynamicSymbolRegistry20getRegisteredSymbolsEvE21dynamicSymbolRegistry
	movt	r0, :upper16:_ZGVZN4RNBO21DynamicSymbolRegistry20getRegisteredSymbolsEvE21dynamicSymbolRegistry
	ldrb	r0, [r0]
	dmb	ish
	tst	r0, #1
	bne	.LBB8_3
.Ltmp166:
@ BB#1:
	@DEBUG_VALUE: Logger:this <- %R1
	.loc	7 28 4 is_stmt 0 discriminator 1 @ /root/Bela/projects/rnbo.example.bela-main/rnbo/src/RNBO_DynamicSymbolRegistry.h:28:4
	movw	r0, :lower16:_ZGVZN4RNBO21DynamicSymbolRegistry20getRegisteredSymbolsEvE21dynamicSymbolRegistry
	movt	r0, :upper16:_ZGVZN4RNBO21DynamicSymbolRegistry20getRegisteredSymbolsEvE21dynamicSymbolRegistry
	bl	__cxa_guard_acquire
.Ltmp167:
	cmp	r0, #0
	beq	.LBB8_3
@ BB#2:
.Ltmp168:
	@DEBUG_VALUE: vector:this <- %R1
	.loc	14 87 22 is_stmt 1      @ /usr/bin/../lib/gcc/arm-linux-gnueabihf/6.3.0/../../../../include/c++/6.3.0/bits/stl_vector.h:87:22
	movw	r1, :lower16:_ZZN4RNBO21DynamicSymbolRegistry20getRegisteredSymbolsEvE21dynamicSymbolRegistry
.Ltmp169:
	mov	r0, #0
	movt	r1, :upper16:_ZZN4RNBO21DynamicSymbolRegistry20getRegisteredSymbolsEvE21dynamicSymbolRegistry
.Ltmp170:
	.loc	7 28 4 discriminator 3  @ /root/Bela/projects/rnbo.example.bela-main/rnbo/src/RNBO_DynamicSymbolRegistry.h:28:4
	movw	r2, :lower16:__dso_handle
.Ltmp171:
	.loc	14 87 22                @ /usr/bin/../lib/gcc/arm-linux-gnueabihf/6.3.0/../../../../include/c++/6.3.0/bits/stl_vector.h:87:22
	str	r0, [r1]
.Ltmp172:
	.loc	7 28 4 discriminator 3  @ /root/Bela/projects/rnbo.example.bela-main/rnbo/src/RNBO_DynamicSymbolRegistry.h:28:4
	movt	r2, :upper16:__dso_handle
.Ltmp173:
	.loc	14 87 34                @ /usr/bin/../lib/gcc/arm-linux-gnueabihf/6.3.0/../../../../include/c++/6.3.0/bits/stl_vector.h:87:34
	str	r0, [r1, #4]
	.loc	14 87 47 is_stmt 0      @ /usr/bin/../lib/gcc/arm-linux-gnueabihf/6.3.0/../../../../include/c++/6.3.0/bits/stl_vector.h:87:47
	str	r0, [r1, #8]
.Ltmp174:
	.loc	7 28 4 is_stmt 1 discriminator 3 @ /root/Bela/projects/rnbo.example.bela-main/rnbo/src/RNBO_DynamicSymbolRegistry.h:28:4
	movw	r0, :lower16:_ZNSt6vectorIN4RNBO21DynamicSymbolRegistry13DynamicSymbolESaIS2_EED2Ev
	movt	r0, :upper16:_ZNSt6vectorIN4RNBO21DynamicSymbolRegistry13DynamicSymbolESaIS2_EED2Ev
	bl	__cxa_atexit
	.loc	7 28 4 is_stmt 0 discriminator 4 @ /root/Bela/projects/rnbo.example.bela-main/rnbo/src/RNBO_DynamicSymbolRegistry.h:28:4
	movw	r0, :lower16:_ZGVZN4RNBO21DynamicSymbolRegistry20getRegisteredSymbolsEvE21dynamicSymbolRegistry
	movt	r0, :upper16:_ZGVZN4RNBO21DynamicSymbolRegistry20getRegisteredSymbolsEvE21dynamicSymbolRegistry
	bl	__cxa_guard_release
.Ltmp175:
.LBB8_3:                                @ %_ZN4RNBO21DynamicSymbolRegistry20getRegisteredSymbolsEv.exit.i.i.i
	.loc	14 920 6 is_stmt 1      @ /usr/bin/../lib/gcc/arm-linux-gnueabihf/6.3.0/../../../../include/c++/6.3.0/bits/stl_vector.h:920:6
	movw	r8, :lower16:_ZZN4RNBO21DynamicSymbolRegistry20getRegisteredSymbolsEvE21dynamicSymbolRegistry
	movt	r8, :upper16:_ZZN4RNBO21DynamicSymbolRegistry20getRegisteredSymbolsEvE21dynamicSymbolRegistry
.Ltmp176:
	@DEBUG_VALUE: construct<RNBO::DynamicSymbolRegistry::DynamicSymbol, const RNBO::DynamicSymbolRegistry::DynamicSymbol &>:__p <- %R6
	@DEBUG_VALUE: construct<RNBO::DynamicSymbolRegistry::DynamicSymbol, const RNBO::DynamicSymbolRegistry::DynamicSymbol &>:__p <- %R6
	ldr	r6, [r8, #4]
.Ltmp177:
	.loc	14 916 47               @ /usr/bin/../lib/gcc/arm-linux-gnueabihf/6.3.0/../../../../include/c++/6.3.0/bits/stl_vector.h:916:47
	ldr	r0, [r8, #8]
.Ltmp178:
	.loc	14 916 6 is_stmt 0      @ /usr/bin/../lib/gcc/arm-linux-gnueabihf/6.3.0/../../../../include/c++/6.3.0/bits/stl_vector.h:916:6
	cmp	r6, r0
.Ltmp179:
	@DEBUG_VALUE: push_back:this <- %R8
	beq	.LBB8_5
.Ltmp180:
@ BB#4:
	@DEBUG_VALUE: push_back:this <- %R8
	.loc	10 120 23 is_stmt 1 discriminator 1 @ /usr/bin/../lib/gcc/arm-linux-gnueabihf/6.3.0/../../../../include/c++/6.3.0/ext/new_allocator.h:120:23
	movw	r0, #28515
	movw	r1, #27759
	movt	r0, #29550
	movt	r1, #101
.Ltmp181:
	@DEBUG_VALUE: registerSymbol:location <- %R0
	stm	r6, {r0, r1}
	add	r0, r6, #8
.Ltmp182:
	mov	r1, sp
	mov	r2, #248
	bl	memcpy
	movw	r0, :lower16:console
	movt	r0, :upper16:console
	str	r0, [r6, #256]
.Ltmp183:
	.loc	14 920 6                @ /usr/bin/../lib/gcc/arm-linux-gnueabihf/6.3.0/../../../../include/c++/6.3.0/bits/stl_vector.h:920:6
	add	r0, r6, #260
	str	r0, [r8, #4]
	sub	sp, r11, #28
	pop	{r4, r5, r6, r7, r8, r9, r10, r11, pc}
.Ltmp184:
.LBB8_5:
	@DEBUG_VALUE: push_back:this <- %R8
	@DEBUG_VALUE: _M_check_len:__n <- 1
	.loc	14 656 66               @ /usr/bin/../lib/gcc/arm-linux-gnueabihf/6.3.0/../../../../include/c++/6.3.0/bits/stl_vector.h:656:66
	ldr	r10, [r8]
	.loc	14 656 50 is_stmt 0     @ /usr/bin/../lib/gcc/arm-linux-gnueabihf/6.3.0/../../../../include/c++/6.3.0/bits/stl_vector.h:656:50
	movw	r9, #4033
	movt	r9, #49404
	subs	r0, r6, r10
	asr	r0, r0, #2
	mul	r1, r0, r9
.Ltmp185:
	.loc	14 1425 35 is_stmt 1    @ /usr/bin/../lib/gcc/arm-linux-gnueabihf/6.3.0/../../../../include/c++/6.3.0/bits/stl_vector.h:1425:35
	movweq	r1, #1
	mla	r2, r0, r9, r1
	movw	r0, #4032
	movt	r0, #252
	.loc	14 1426 25              @ /usr/bin/../lib/gcc/arm-linux-gnueabihf/6.3.0/../../../../include/c++/6.3.0/bits/stl_vector.h:1426:25
	cmp	r2, r0
	mov	r7, r2
	movwhi	r7, #4032
	movthi	r7, #252
	cmp	r2, r1
	movlo	r7, r0
.Ltmp186:
	@DEBUG_VALUE: _M_allocate:__n <- %R7
	@DEBUG_VALUE: _M_emplace_back_aux<const RNBO::DynamicSymbolRegistry::DynamicSymbol &>:__len <- %R7
	@DEBUG_VALUE: allocate:__n <- %R7
	@DEBUG_VALUE: allocate:__n <- %R7
	.loc	14 170 9                @ /usr/bin/../lib/gcc/arm-linux-gnueabihf/6.3.0/../../../../include/c++/6.3.0/bits/stl_vector.h:170:9
	cmp	r7, #0
.Ltmp187:
	@DEBUG_VALUE: _M_check_len:__len <- %R2
	@DEBUG_VALUE: size:this <- %R8
	@DEBUG_VALUE: size:this <- %R8
	@DEBUG_VALUE: size:this <- %R8
	@DEBUG_VALUE: size:this <- %R8
	beq	.LBB8_8
.Ltmp188:
@ BB#6:
	@DEBUG_VALUE: size:this <- %R8
	@DEBUG_VALUE: size:this <- %R8
	@DEBUG_VALUE: size:this <- %R8
	@DEBUG_VALUE: size:this <- %R8
	@DEBUG_VALUE: _M_check_len:__len <- %R2
	@DEBUG_VALUE: allocate:__n <- %R7
	@DEBUG_VALUE: allocate:__n <- %R7
	@DEBUG_VALUE: _M_emplace_back_aux<const RNBO::DynamicSymbolRegistry::DynamicSymbol &>:__len <- %R7
	@DEBUG_VALUE: _M_allocate:__n <- %R7
	@DEBUG_VALUE: push_back:this <- %R8
	.loc	10 101 6                @ /usr/bin/../lib/gcc/arm-linux-gnueabihf/6.3.0/../../../../include/c++/6.3.0/ext/new_allocator.h:101:6
	cmp	r7, r0
	bhi	.LBB8_14
.Ltmp189:
@ BB#7:                                 @ %_ZNSt16allocator_traitsISaIN4RNBO21DynamicSymbolRegistry13DynamicSymbolEEE8allocateERS3_j.exit.i.i.i
	@DEBUG_VALUE: size:this <- %R8
	@DEBUG_VALUE: size:this <- %R8
	@DEBUG_VALUE: size:this <- %R8
	@DEBUG_VALUE: size:this <- %R8
	@DEBUG_VALUE: _M_check_len:__len <- %R2
	@DEBUG_VALUE: allocate:__n <- %R7
	@DEBUG_VALUE: allocate:__n <- %R7
	@DEBUG_VALUE: _M_emplace_back_aux<const RNBO::DynamicSymbolRegistry::DynamicSymbol &>:__len <- %R7
	@DEBUG_VALUE: _M_allocate:__n <- %R7
	@DEBUG_VALUE: push_back:this <- %R8
	.loc	10 104 46               @ /usr/bin/../lib/gcc/arm-linux-gnueabihf/6.3.0/../../../../include/c++/6.3.0/ext/new_allocator.h:104:46
	add	r0, r7, r7, lsl #6
	lsl	r0, r0, #2
	.loc	10 104 27 is_stmt 0     @ /usr/bin/../lib/gcc/arm-linux-gnueabihf/6.3.0/../../../../include/c++/6.3.0/ext/new_allocator.h:104:27
	bl	_Znwj
.Ltmp190:
	.loc	14 656 66 is_stmt 1     @ /usr/bin/../lib/gcc/arm-linux-gnueabihf/6.3.0/../../../../include/c++/6.3.0/bits/stl_vector.h:656:66
	ldr	r10, [r8]
.Ltmp191:
	.loc	10 104 27               @ /usr/bin/../lib/gcc/arm-linux-gnueabihf/6.3.0/../../../../include/c++/6.3.0/ext/new_allocator.h:104:27
	mov	r4, r0
.Ltmp192:
	.loc	14 656 40               @ /usr/bin/../lib/gcc/arm-linux-gnueabihf/6.3.0/../../../../include/c++/6.3.0/bits/stl_vector.h:656:40
	ldr	r6, [r8, #4]
	b	.LBB8_9
.Ltmp193:
.LBB8_8:
	@DEBUG_VALUE: size:this <- %R8
	@DEBUG_VALUE: size:this <- %R8
	@DEBUG_VALUE: size:this <- %R8
	@DEBUG_VALUE: size:this <- %R8
	@DEBUG_VALUE: _M_check_len:__len <- %R2
	@DEBUG_VALUE: allocate:__n <- %R7
	@DEBUG_VALUE: allocate:__n <- %R7
	@DEBUG_VALUE: _M_emplace_back_aux<const RNBO::DynamicSymbolRegistry::DynamicSymbol &>:__len <- %R7
	@DEBUG_VALUE: _M_allocate:__n <- %R7
	@DEBUG_VALUE: push_back:this <- %R8
	mov	r4, #0
.Ltmp194:
.LBB8_9:
	@DEBUG_VALUE: size:this <- %R8
	@DEBUG_VALUE: size:this <- %R8
	@DEBUG_VALUE: size:this <- %R8
	@DEBUG_VALUE: size:this <- %R8
	@DEBUG_VALUE: allocate:__n <- %R7
	@DEBUG_VALUE: allocate:__n <- %R7
	@DEBUG_VALUE: _M_emplace_back_aux<const RNBO::DynamicSymbolRegistry::DynamicSymbol &>:__len <- %R7
	@DEBUG_VALUE: _M_allocate:__n <- %R7
	@DEBUG_VALUE: push_back:this <- %R8
	.loc	10 120 23 discriminator 1 @ /usr/bin/../lib/gcc/arm-linux-gnueabihf/6.3.0/../../../../include/c++/6.3.0/ext/new_allocator.h:120:23
	movw	r0, #28515
.Ltmp195:
	.loc	14 656 50               @ /usr/bin/../lib/gcc/arm-linux-gnueabihf/6.3.0/../../../../include/c++/6.3.0/bits/stl_vector.h:656:50
	sub	r6, r6, r10
.Ltmp196:
	.loc	10 120 23 discriminator 1 @ /usr/bin/../lib/gcc/arm-linux-gnueabihf/6.3.0/../../../../include/c++/6.3.0/ext/new_allocator.h:120:23
	movt	r0, #29550
	mov	r5, r4
	str	r0, [r5, r6]!
	movw	r0, #27759
	movt	r0, #101
	mov	r1, sp
	str	r0, [r5, #4]
	add	r0, r5, #8
	mov	r2, #248
	bl	memcpy
.Ltmp197:
	.loc	14 656 50               @ /usr/bin/../lib/gcc/arm-linux-gnueabihf/6.3.0/../../../../include/c++/6.3.0/bits/stl_vector.h:656:50
	asr	r0, r6, #2
.Ltmp198:
	.file	38 "/usr/bin/../lib/gcc/arm-linux-gnueabihf/6.3.0/../../../../include/c++/6.3.0/bits" "stl_algobase.h"
	.loc	38 367 8                @ /usr/bin/../lib/gcc/arm-linux-gnueabihf/6.3.0/../../../../include/c++/6.3.0/bits/stl_algobase.h:367:8
	cmp	r6, #0
.Ltmp199:
	@DEBUG_VALUE: __copy_move_a<true, RNBO::DynamicSymbolRegistry::DynamicSymbol *, RNBO::DynamicSymbolRegistry::DynamicSymbol *>:__simple <- 1
	@DEBUG_VALUE: uninitialized_copy<std::move_iterator<RNBO::DynamicSymbolRegistry::DynamicSymbol *>, RNBO::DynamicSymbolRegistry::DynamicSymbol *>:__assignable <- 1
	@DEBUG_VALUE: _M_emplace_back_aux<const RNBO::DynamicSymbolRegistry::DynamicSymbol &>:__new_start <- %R4
	.loc	14 656 50               @ /usr/bin/../lib/gcc/arm-linux-gnueabihf/6.3.0/../../../../include/c++/6.3.0/bits/stl_vector.h:656:50
	mul	r9, r0, r9
.Ltmp200:
	@DEBUG_VALUE: __copy_m<RNBO::DynamicSymbolRegistry::DynamicSymbol>:_Num <- %R9
	.loc	10 120 23 discriminator 1 @ /usr/bin/../lib/gcc/arm-linux-gnueabihf/6.3.0/../../../../include/c++/6.3.0/ext/new_allocator.h:120:23
	movw	r0, :lower16:console
	movt	r0, :upper16:console
	str	r0, [r5, #256]
	beq	.LBB8_11
.Ltmp201:
@ BB#10:
	@DEBUG_VALUE: __copy_m<RNBO::DynamicSymbolRegistry::DynamicSymbol>:_Num <- %R9
	@DEBUG_VALUE: _M_emplace_back_aux<const RNBO::DynamicSymbolRegistry::DynamicSymbol &>:__new_start <- %R4
	@DEBUG_VALUE: size:this <- %R8
	@DEBUG_VALUE: size:this <- %R8
	@DEBUG_VALUE: size:this <- %R8
	@DEBUG_VALUE: size:this <- %R8
	@DEBUG_VALUE: allocate:__n <- %R7
	@DEBUG_VALUE: allocate:__n <- %R7
	@DEBUG_VALUE: _M_emplace_back_aux<const RNBO::DynamicSymbolRegistry::DynamicSymbol &>:__len <- %R7
	@DEBUG_VALUE: _M_allocate:__n <- %R7
	@DEBUG_VALUE: push_back:this <- %R8
	.loc	38 368 6                @ /usr/bin/../lib/gcc/arm-linux-gnueabihf/6.3.0/../../../../include/c++/6.3.0/bits/stl_algobase.h:368:6
	mov	r0, r4
	mov	r1, r10
	mov	r2, r6
	bl	memmove
.Ltmp202:
.LBB8_11:
	@DEBUG_VALUE: __copy_m<RNBO::DynamicSymbolRegistry::DynamicSymbol>:_Num <- %R9
	@DEBUG_VALUE: _M_emplace_back_aux<const RNBO::DynamicSymbolRegistry::DynamicSymbol &>:__new_start <- %R4
	@DEBUG_VALUE: size:this <- %R8
	@DEBUG_VALUE: size:this <- %R8
	@DEBUG_VALUE: size:this <- %R8
	@DEBUG_VALUE: size:this <- %R8
	@DEBUG_VALUE: allocate:__n <- %R7
	@DEBUG_VALUE: allocate:__n <- %R7
	@DEBUG_VALUE: _M_emplace_back_aux<const RNBO::DynamicSymbolRegistry::DynamicSymbol &>:__len <- %R7
	@DEBUG_VALUE: _M_allocate:__n <- %R7
	@DEBUG_VALUE: push_back:this <- %R8
	.loc	38 369 20               @ /usr/bin/../lib/gcc/arm-linux-gnueabihf/6.3.0/../../../../include/c++/6.3.0/bits/stl_algobase.h:369:20
	add	r0, r9, r9, lsl #6
.Ltmp203:
	.loc	14 177 6                @ /usr/bin/../lib/gcc/arm-linux-gnueabihf/6.3.0/../../../../include/c++/6.3.0/bits/stl_vector.h:177:6
	cmp	r10, #0
.Ltmp204:
	.loc	38 369 20               @ /usr/bin/../lib/gcc/arm-linux-gnueabihf/6.3.0/../../../../include/c++/6.3.0/bits/stl_algobase.h:369:20
	add	r0, r4, r0, lsl #2
.Ltmp205:
	@DEBUG_VALUE: _M_emplace_back_aux<const RNBO::DynamicSymbolRegistry::DynamicSymbol &>:__new_finish <- %R0
	.file	39 "/usr/bin/../lib/gcc/arm-linux-gnueabihf/6.3.0/../../../../include/c++/6.3.0/bits" "vector.tcc"
	.loc	39 425 6                @ /usr/bin/../lib/gcc/arm-linux-gnueabihf/6.3.0/../../../../include/c++/6.3.0/bits/vector.tcc:425:6
	add	r6, r0, #260
.Ltmp206:
	@DEBUG_VALUE: _M_emplace_back_aux<const RNBO::DynamicSymbolRegistry::DynamicSymbol &>:__new_finish <- %R6
	beq	.LBB8_13
.Ltmp207:
@ BB#12:
	@DEBUG_VALUE: _M_emplace_back_aux<const RNBO::DynamicSymbolRegistry::DynamicSymbol &>:__new_finish <- %R6
	@DEBUG_VALUE: __copy_m<RNBO::DynamicSymbolRegistry::DynamicSymbol>:_Num <- %R9
	@DEBUG_VALUE: _M_emplace_back_aux<const RNBO::DynamicSymbolRegistry::DynamicSymbol &>:__new_start <- %R4
	@DEBUG_VALUE: size:this <- %R8
	@DEBUG_VALUE: size:this <- %R8
	@DEBUG_VALUE: size:this <- %R8
	@DEBUG_VALUE: size:this <- %R8
	@DEBUG_VALUE: allocate:__n <- %R7
	@DEBUG_VALUE: allocate:__n <- %R7
	@DEBUG_VALUE: _M_emplace_back_aux<const RNBO::DynamicSymbolRegistry::DynamicSymbol &>:__len <- %R7
	@DEBUG_VALUE: _M_allocate:__n <- %R7
	@DEBUG_VALUE: push_back:this <- %R8
	.loc	10 110 9                @ /usr/bin/../lib/gcc/arm-linux-gnueabihf/6.3.0/../../../../include/c++/6.3.0/ext/new_allocator.h:110:9
	mov	r0, r10
	bl	_ZdlPv
.Ltmp208:
.LBB8_13:                               @ %_ZNSt6vectorIN4RNBO21DynamicSymbolRegistry13DynamicSymbolESaIS2_EE19_M_emplace_back_auxIJRKS2_EEEvDpOT_.exit.i
	@DEBUG_VALUE: _M_emplace_back_aux<const RNBO::DynamicSymbolRegistry::DynamicSymbol &>:__new_finish <- %R6
	@DEBUG_VALUE: __copy_m<RNBO::DynamicSymbolRegistry::DynamicSymbol>:_Num <- %R9
	@DEBUG_VALUE: _M_emplace_back_aux<const RNBO::DynamicSymbolRegistry::DynamicSymbol &>:__new_start <- %R4
	@DEBUG_VALUE: size:this <- %R8
	@DEBUG_VALUE: size:this <- %R8
	@DEBUG_VALUE: size:this <- %R8
	@DEBUG_VALUE: size:this <- %R8
	@DEBUG_VALUE: allocate:__n <- %R7
	@DEBUG_VALUE: allocate:__n <- %R7
	@DEBUG_VALUE: _M_emplace_back_aux<const RNBO::DynamicSymbolRegistry::DynamicSymbol &>:__len <- %R7
	@DEBUG_VALUE: _M_allocate:__n <- %R7
	@DEBUG_VALUE: push_back:this <- %R8
	.loc	39 443 48               @ /usr/bin/../lib/gcc/arm-linux-gnueabihf/6.3.0/../../../../include/c++/6.3.0/bits/vector.tcc:443:48
	add	r0, r7, r7, lsl #6
	.loc	39 441 25               @ /usr/bin/../lib/gcc/arm-linux-gnueabihf/6.3.0/../../../../include/c++/6.3.0/bits/vector.tcc:441:25
	stm	r8, {r4, r6}
	.loc	39 443 48               @ /usr/bin/../lib/gcc/arm-linux-gnueabihf/6.3.0/../../../../include/c++/6.3.0/bits/vector.tcc:443:48
	add	r0, r4, r0, lsl #2
.Ltmp209:
	@DEBUG_VALUE: size:this <- %R8
	.loc	39 443 34 is_stmt 0     @ /usr/bin/../lib/gcc/arm-linux-gnueabihf/6.3.0/../../../../include/c++/6.3.0/bits/vector.tcc:443:34
	str	r0, [r8, #8]
	sub	sp, r11, #28
	pop	{r4, r5, r6, r7, r8, r9, r10, r11, pc}
.Ltmp210:
.LBB8_14:
	@DEBUG_VALUE: size:this <- %R8
	@DEBUG_VALUE: size:this <- %R8
	@DEBUG_VALUE: size:this <- %R8
	@DEBUG_VALUE: size:this <- %R8
	@DEBUG_VALUE: _M_check_len:__len <- %R2
	@DEBUG_VALUE: allocate:__n <- %R7
	@DEBUG_VALUE: allocate:__n <- %R7
	@DEBUG_VALUE: _M_emplace_back_aux<const RNBO::DynamicSymbolRegistry::DynamicSymbol &>:__len <- %R7
	@DEBUG_VALUE: _M_allocate:__n <- %R7
	@DEBUG_VALUE: push_back:this <- %R8
	.loc	10 102 4 is_stmt 1      @ /usr/bin/../lib/gcc/arm-linux-gnueabihf/6.3.0/../../../../include/c++/6.3.0/ext/new_allocator.h:102:4
	mov	lr, pc
	b	_ZSt17__throw_bad_allocv
.Ltmp211:
.Lfunc_end8:
	.size	_GLOBAL__sub_I_RNBO_Logger.ii, .Lfunc_end8-_GLOBAL__sub_I_RNBO_Logger.ii
	.cfi_endproc
	.file	40 "/usr/bin/../lib/gcc/arm-linux-gnueabihf/6.3.0/../../../../include/c++/6.3.0/bits" "stl_uninitialized.h"
	.fnend

	.type	_ZN4RNBOL17s_logger_instanceE,%object @ @_ZN4RNBOL17s_logger_instanceE
	.local	_ZN4RNBOL17s_logger_instanceE
	.comm	_ZN4RNBOL17s_logger_instanceE,8,4
	.type	console,%object         @ @console
	.data
	.globl	console
	.p2align	2
console:
	.long	_ZN4RNBOL17s_logger_instanceE
	.size	console, 4

	.type	_ZTVN4RNBO6LoggerE,%object @ @_ZTVN4RNBO6LoggerE
	.section	.rodata,"a",%progbits
	.globl	_ZTVN4RNBO6LoggerE
	.p2align	2
_ZTVN4RNBO6LoggerE:
	.long	0
	.long	_ZTIN4RNBO6LoggerE
	.long	_ZN4RNBO6LoggerD2Ev
	.long	_ZN4RNBO6LoggerD0Ev
	.long	_ZN4RNBO6Logger3logENS_8LogLevelEPKc
	.size	_ZTVN4RNBO6LoggerE, 20

	.type	_ZZN4RNBO6Logger24defaultLogOutputFunctionENS_8LogLevelEPKcE8levelStr,%object @ @_ZZN4RNBO6Logger24defaultLogOutputFunctionENS_8LogLevelEPKcE8levelStr
	.p2align	2
_ZZN4RNBO6Logger24defaultLogOutputFunctionENS_8LogLevelEPKcE8levelStr:
	.long	.L.str.2
	.long	.L.str.3
	.long	.L.str.4
	.size	_ZZN4RNBO6Logger24defaultLogOutputFunctionENS_8LogLevelEPKcE8levelStr, 12

	.type	.L.str.2,%object        @ @.str.2
	.section	.rodata.str1.1,"aMS",%progbits,1
.L.str.2:
	.asciz	"[INFO]"
	.size	.L.str.2, 7

	.type	.L.str.3,%object        @ @.str.3
.L.str.3:
	.asciz	"[WARNING]"
	.size	.L.str.3, 10

	.type	.L.str.4,%object        @ @.str.4
.L.str.4:
	.asciz	"[ERROR]"
	.size	.L.str.4, 8

	.type	.L.str.5,%object        @ @.str.5
.L.str.5:
	.asciz	"\t"
	.size	.L.str.5, 2

	.type	.L.str.6,%object        @ @.str.6
.L.str.6:
	.asciz	"\n"
	.size	.L.str.6, 2

	.type	_ZTSN4RNBO6LoggerE,%object @ @_ZTSN4RNBO6LoggerE
	.section	.rodata,"a",%progbits
	.globl	_ZTSN4RNBO6LoggerE
_ZTSN4RNBO6LoggerE:
	.asciz	"N4RNBO6LoggerE"
	.size	_ZTSN4RNBO6LoggerE, 15

	.type	_ZTSN4RNBO15LoggerInterfaceE,%object @ @_ZTSN4RNBO15LoggerInterfaceE
	.section	.rodata._ZTSN4RNBO15LoggerInterfaceE,"aG",%progbits,_ZTSN4RNBO15LoggerInterfaceE,comdat
	.weak	_ZTSN4RNBO15LoggerInterfaceE
	.p2align	4
_ZTSN4RNBO15LoggerInterfaceE:
	.asciz	"N4RNBO15LoggerInterfaceE"
	.size	_ZTSN4RNBO15LoggerInterfaceE, 25

	.type	_ZTIN4RNBO15LoggerInterfaceE,%object @ @_ZTIN4RNBO15LoggerInterfaceE
	.section	.rodata._ZTIN4RNBO15LoggerInterfaceE,"aG",%progbits,_ZTIN4RNBO15LoggerInterfaceE,comdat
	.weak	_ZTIN4RNBO15LoggerInterfaceE
	.p2align	2
_ZTIN4RNBO15LoggerInterfaceE:
	.long	_ZTVN10__cxxabiv117__class_type_infoE+8
	.long	_ZTSN4RNBO15LoggerInterfaceE
	.size	_ZTIN4RNBO15LoggerInterfaceE, 8

	.type	_ZTIN4RNBO6LoggerE,%object @ @_ZTIN4RNBO6LoggerE
	.section	.rodata,"a",%progbits
	.globl	_ZTIN4RNBO6LoggerE
	.p2align	2
_ZTIN4RNBO6LoggerE:
	.long	_ZTVN10__cxxabiv120__si_class_type_infoE+8
	.long	_ZTSN4RNBO6LoggerE
	.long	_ZTIN4RNBO15LoggerInterfaceE
	.size	_ZTIN4RNBO6LoggerE, 12

	.type	_ZZN4RNBO21DynamicSymbolRegistry20getRegisteredSymbolsEvE21dynamicSymbolRegistry,%object @ @_ZZN4RNBO21DynamicSymbolRegistry20getRegisteredSymbolsEvE21dynamicSymbolRegistry
	.section	.bss._ZZN4RNBO21DynamicSymbolRegistry20getRegisteredSymbolsEvE21dynamicSymbolRegistry,"aGw",%nobits,_ZZN4RNBO21DynamicSymbolRegistry20getRegisteredSymbolsEvE21dynamicSymbolRegistry,comdat
	.weak	_ZZN4RNBO21DynamicSymbolRegistry20getRegisteredSymbolsEvE21dynamicSymbolRegistry
	.p2align	2
_ZZN4RNBO21DynamicSymbolRegistry20getRegisteredSymbolsEvE21dynamicSymbolRegistry:
	.zero	12
	.size	_ZZN4RNBO21DynamicSymbolRegistry20getRegisteredSymbolsEvE21dynamicSymbolRegistry, 12

	.type	_ZGVZN4RNBO21DynamicSymbolRegistry20getRegisteredSymbolsEvE21dynamicSymbolRegistry,%object @ @_ZGVZN4RNBO21DynamicSymbolRegistry20getRegisteredSymbolsEvE21dynamicSymbolRegistry
	.section	.bss._ZGVZN4RNBO21DynamicSymbolRegistry20getRegisteredSymbolsEvE21dynamicSymbolRegistry,"aGw",%nobits,_ZGVZN4RNBO21DynamicSymbolRegistry20getRegisteredSymbolsEvE21dynamicSymbolRegistry,comdat
	.weak	_ZGVZN4RNBO21DynamicSymbolRegistry20getRegisteredSymbolsEvE21dynamicSymbolRegistry
	.p2align	2
_ZGVZN4RNBO21DynamicSymbolRegistry20getRegisteredSymbolsEvE21dynamicSymbolRegistry:
	.long	0                       @ 0x0
	.size	_ZGVZN4RNBO21DynamicSymbolRegistry20getRegisteredSymbolsEvE21dynamicSymbolRegistry, 4

	.type	_ZZN4RNBO8Platform8instanceEvE9pInstance,%object @ @_ZZN4RNBO8Platform8instanceEvE9pInstance
	.section	.bss._ZZN4RNBO8Platform8instanceEvE9pInstance,"aGw",%nobits,_ZZN4RNBO8Platform8instanceEvE9pInstance,comdat
	.weak	_ZZN4RNBO8Platform8instanceEvE9pInstance
	.p2align	2
_ZZN4RNBO8Platform8instanceEvE9pInstance:
	.long	0
	.size	_ZZN4RNBO8Platform8instanceEvE9pInstance, 4

	.section	.init_array,"aw",%init_array
	.p2align	2
	.long	_GLOBAL__sub_I_RNBO_Logger.ii(target1)
	.section	".note.GNU-stack","",%progbits
	.eabi_attribute	30, 2	@ Tag_ABI_optimization_goals