	.text
	.syntax unified
	.eabi_attribute	67, "2.09"	@ Tag_conformance
	.cpu	cortex-a8
	.eabi_attribute	6, 10	@ Tag_CPU_arch
	.eabi_attribute	7, 65	@ Tag_CPU_arch_profile
	.eabi_attribute	8, 1	@ Tag_ARM_ISA_use
	.eabi_attribute	9, 2	@ Tag_THUMB_ISA_use
	.fpu	neon
	.eabi_attribute	17, 1	@ Tag_ABI_PCS_GOT_use
	.eabi_attribute	20, 2	@ Tag_ABI_FP_denormal
	.eabi_attribute	23, 1	@ Tag_ABI_FP_number_model
	.eabi_attribute	34, 1	@ Tag_CPU_unaligned_access
	.eabi_attribute	24, 1	@ Tag_ABI_align_needed
	.eabi_attribute	25, 1	@ Tag_ABI_align_preserved
	.eabi_attribute	28, 1	@ Tag_ABI_VFP_args
	.eabi_attribute	38, 1	@ Tag_ABI_FP_16bit_format
	.eabi_attribute	18, 4	@ Tag_ABI_PCS_wchar_t
	.eabi_attribute	26, 2	@ Tag_ABI_enum_size
	.eabi_attribute	14, 0	@ Tag_ABI_PCS_R9_use
	.eabi_attribute	68, 1	@ Tag_Virtualization_use
	.file	"/root/Bela/projects/rnbo.example.bela-main/build/DFRobot_VisualRotaryEncoder.bc"
	.file	1 "/usr/include" "stdint.h"
	.globl	_ZN27DFRobot_VisualRotaryEncoderC2Ev
	.p2align	2
	.type	_ZN27DFRobot_VisualRotaryEncoderC2Ev,%function
_ZN27DFRobot_VisualRotaryEncoderC2Ev:   @ @_ZN27DFRobot_VisualRotaryEncoderC2Ev
.Lfunc_begin0:
	.file	2 "/root/Bela/projects/rnbo.example.bela-main" "DFRobot_VisualRotaryEncoder.cpp"
	.loc	2 15 0                  @ /root/Bela/projects/rnbo.example.bela-main/DFRobot_VisualRotaryEncoder.cpp:15:0
	.fnstart
	.cfi_startproc
@ BB#0:
	@DEBUG_VALUE: DFRobot_VisualRotaryEncoder:this <- %R0
	.loc	2 15 1 prologue_end     @ /root/Bela/projects/rnbo.example.bela-main/DFRobot_VisualRotaryEncoder.cpp:15:1
	movw	r1, :lower16:_ZTV27DFRobot_VisualRotaryEncoder
	movt	r1, :upper16:_ZTV27DFRobot_VisualRotaryEncoder
	add	r1, r1, #8
	str	r1, [r0]
	.loc	2 16 1                  @ /root/Bela/projects/rnbo.example.bela-main/DFRobot_VisualRotaryEncoder.cpp:16:1
	bx	lr
.Ltmp0:
.Lfunc_end0:
	.size	_ZN27DFRobot_VisualRotaryEncoderC2Ev, .Lfunc_end0-_ZN27DFRobot_VisualRotaryEncoderC2Ev
	.cfi_endproc
	.file	3 "/root/Bela/projects/rnbo.example.bela-main" "DFRobot_VisualRotaryEncoder.h"
	.file	4 "/usr/lib/llvm-3.9/bin/../lib/clang/3.9.1/include" "stddef.h"
	.fnend

	.globl	_ZN27DFRobot_VisualRotaryEncoder5beginEv
	.p2align	2
	.type	_ZN27DFRobot_VisualRotaryEncoder5beginEv,%function
_ZN27DFRobot_VisualRotaryEncoder5beginEv: @ @_ZN27DFRobot_VisualRotaryEncoder5beginEv
.Lfunc_begin1:
	.loc	2 20 0                  @ /root/Bela/projects/rnbo.example.bela-main/DFRobot_VisualRotaryEncoder.cpp:20:0
	.fnstart
	.cfi_startproc
@ BB#0:
	.save	{r11, lr}
	push	{r11, lr}
.Ltmp1:
	.cfi_def_cfa_offset 8
.Ltmp2:
	.cfi_offset lr, -4
.Ltmp3:
	.cfi_offset r11, -8
	.setfp	r11, sp
	mov	r11, sp
.Ltmp4:
	.cfi_def_cfa_register r11
	.pad	#8
	sub	sp, sp, #8
	@DEBUG_VALUE: begin:this <- %R0
.Ltmp5:
	.loc	2 22 11 prologue_end    @ /root/Bela/projects/rnbo.example.bela-main/DFRobot_VisualRotaryEncoder.cpp:22:11
	ldr	r1, [r0]
	sub	r2, r11, #2
.Ltmp6:
	@DEBUG_VALUE: begin:idBuf <- [%R2+0]
	mov	r3, #2
	ldr	r12, [r1, #8]
	mov	r1, #0
	blx	r12
.Ltmp7:
	mov	r1, r0
	mvn	r0, #0
.Ltmp8:
	.loc	2 22 6 is_stmt 0        @ /root/Bela/projects/rnbo.example.bela-main/DFRobot_VisualRotaryEncoder.cpp:22:6
	cmp	r1, #0
	beq	.LBB1_3
@ BB#1:
.Ltmp9:
	.loc	2 28 29 is_stmt 1       @ /root/Bela/projects/rnbo.example.bela-main/DFRobot_VisualRotaryEncoder.cpp:28:29
	ldrb	r0, [r11, #-2]
	.loc	2 28 24 is_stmt 0       @ /root/Bela/projects/rnbo.example.bela-main/DFRobot_VisualRotaryEncoder.cpp:28:24
	movw	r2, #502
	.loc	2 28 55                 @ /root/Bela/projects/rnbo.example.bela-main/DFRobot_VisualRotaryEncoder.cpp:28:55
	ldrb	r1, [r11, #-1]
	.loc	2 28 53                 @ /root/Bela/projects/rnbo.example.bela-main/DFRobot_VisualRotaryEncoder.cpp:28:53
	orr	r1, r1, r0, lsl #8
	mvn	r0, #1
.Ltmp10:
	.loc	2 28 7                  @ /root/Bela/projects/rnbo.example.bela-main/DFRobot_VisualRotaryEncoder.cpp:28:7
	cmp	r1, r2
	bne	.LBB1_3
@ BB#2:
	.loc	2 33 3 is_stmt 1        @ /root/Bela/projects/rnbo.example.bela-main/DFRobot_VisualRotaryEncoder.cpp:33:3
	movw	r0, #20000
	bl	usleep
	mov	r0, #0
.LBB1_3:
	.loc	2 36 1                  @ /root/Bela/projects/rnbo.example.bela-main/DFRobot_VisualRotaryEncoder.cpp:36:1
	mov	sp, r11
	pop	{r11, pc}
.Ltmp11:
.Lfunc_end1:
	.size	_ZN27DFRobot_VisualRotaryEncoder5beginEv, .Lfunc_end1-_ZN27DFRobot_VisualRotaryEncoder5beginEv
	.cfi_endproc
	.fnend

	.globl	_ZN27DFRobot_VisualRotaryEncoder16refreshBasicInfoEv
	.p2align	2
	.type	_ZN27DFRobot_VisualRotaryEncoder16refreshBasicInfoEv,%function
_ZN27DFRobot_VisualRotaryEncoder16refreshBasicInfoEv: @ @_ZN27DFRobot_VisualRotaryEncoder16refreshBasicInfoEv
.Lfunc_begin2:
	.loc	2 39 0                  @ /root/Bela/projects/rnbo.example.bela-main/DFRobot_VisualRotaryEncoder.cpp:39:0
	.fnstart
	.cfi_startproc
@ BB#0:
	.save	{r4, r10, r11, lr}
	push	{r4, r10, r11, lr}
.Ltmp12:
	.cfi_def_cfa_offset 16
.Ltmp13:
	.cfi_offset lr, -4
.Ltmp14:
	.cfi_offset r11, -8
.Ltmp15:
	.cfi_offset r10, -12
.Ltmp16:
	.cfi_offset r4, -16
	.setfp	r11, sp, #8
	add	r11, sp, #8
.Ltmp17:
	.cfi_def_cfa r11, 8
	.pad	#8
	sub	sp, sp, #8
	@DEBUG_VALUE: refreshBasicInfo:this <- %R0
	mov	r4, r0
.Ltmp18:
	@DEBUG_VALUE: refreshBasicInfo:this <- %R4
	mov	r0, #0
.Ltmp19:
	.loc	2 40 11 prologue_end discriminator 1 @ /root/Bela/projects/rnbo.example.bela-main/DFRobot_VisualRotaryEncoder.cpp:40:11
	str	r0, [sp, #4]
	mov	r2, sp
.Ltmp20:
	@DEBUG_VALUE: refreshBasicInfo:tempBuf <- [%R2+0]
	str	r0, [sp]
	.loc	2 41 3                  @ /root/Bela/projects/rnbo.example.bela-main/DFRobot_VisualRotaryEncoder.cpp:41:3
	mov	r1, #0
	ldr	r0, [r4]
	mov	r3, #8
	ldr	r12, [r0, #8]
	mov	r0, r4
	blx	r12
.Ltmp21:
	.loc	2 42 29                 @ /root/Bela/projects/rnbo.example.bela-main/DFRobot_VisualRotaryEncoder.cpp:42:29
	ldr	r0, [sp]
	.loc	2 42 17 is_stmt 0       @ /root/Bela/projects/rnbo.example.bela-main/DFRobot_VisualRotaryEncoder.cpp:42:17
	rev16	r1, r0
	strh	r1, [r4, #4]
	.loc	2 43 40 is_stmt 1       @ /root/Bela/projects/rnbo.example.bela-main/DFRobot_VisualRotaryEncoder.cpp:43:40
	mov	r1, #65280
	and	r1, r1, r0, lsr #8
	.loc	2 43 45 is_stmt 0       @ /root/Bela/projects/rnbo.example.bela-main/DFRobot_VisualRotaryEncoder.cpp:43:45
	orr	r0, r1, r0, lsr #24
	.loc	2 43 17                 @ /root/Bela/projects/rnbo.example.bela-main/DFRobot_VisualRotaryEncoder.cpp:43:17
	strh	r0, [r4, #6]
	.loc	2 44 33 is_stmt 1       @ /root/Bela/projects/rnbo.example.bela-main/DFRobot_VisualRotaryEncoder.cpp:44:33
	ldr	r0, [sp, #4]
	.loc	2 44 21 is_stmt 0       @ /root/Bela/projects/rnbo.example.bela-main/DFRobot_VisualRotaryEncoder.cpp:44:21
	rev16	r1, r0
	strh	r1, [r4, #8]
	.loc	2 45 33 is_stmt 1       @ /root/Bela/projects/rnbo.example.bela-main/DFRobot_VisualRotaryEncoder.cpp:45:33
	lsr	r0, r0, #24
	.loc	2 45 21 is_stmt 0       @ /root/Bela/projects/rnbo.example.bela-main/DFRobot_VisualRotaryEncoder.cpp:45:21
	strb	r0, [r4, #10]
	.loc	2 46 1 is_stmt 1        @ /root/Bela/projects/rnbo.example.bela-main/DFRobot_VisualRotaryEncoder.cpp:46:1
	sub	sp, r11, #8
	pop	{r4, r10, r11, pc}
.Ltmp22:
.Lfunc_end2:
	.size	_ZN27DFRobot_VisualRotaryEncoder16refreshBasicInfoEv, .Lfunc_end2-_ZN27DFRobot_VisualRotaryEncoder16refreshBasicInfoEv
	.cfi_endproc
	.fnend

	.globl	_ZN27DFRobot_VisualRotaryEncoder15getEncoderValueEv
	.p2align	2
	.type	_ZN27DFRobot_VisualRotaryEncoder15getEncoderValueEv,%function
_ZN27DFRobot_VisualRotaryEncoder15getEncoderValueEv: @ @_ZN27DFRobot_VisualRotaryEncoder15getEncoderValueEv
.Lfunc_begin3:
	.loc	2 49 0                  @ /root/Bela/projects/rnbo.example.bela-main/DFRobot_VisualRotaryEncoder.cpp:49:0
	.fnstart
	.cfi_startproc
@ BB#0:
	.save	{r11, lr}
	push	{r11, lr}
.Ltmp23:
	.cfi_def_cfa_offset 8
.Ltmp24:
	.cfi_offset lr, -4
.Ltmp25:
	.cfi_offset r11, -8
	.setfp	r11, sp
	mov	r11, sp
.Ltmp26:
	.cfi_def_cfa_register r11
	.pad	#8
	sub	sp, sp, #8
	@DEBUG_VALUE: getEncoderValue:this <- %R0
.Ltmp27:
	.loc	2 50 11 prologue_end discriminator 1 @ /root/Bela/projects/rnbo.example.bela-main/DFRobot_VisualRotaryEncoder.cpp:50:11
	mov	r1, #0
	sub	r2, r11, #2
	strh	r1, [r11, #-2]
	.loc	2 51 3                  @ /root/Bela/projects/rnbo.example.bela-main/DFRobot_VisualRotaryEncoder.cpp:51:3
	mov	r3, #2
	ldr	r1, [r0]
	ldr	r12, [r1, #8]
	mov	r1, #8
	blx	r12
.Ltmp28:
	.loc	2 53 20                 @ /root/Bela/projects/rnbo.example.bela-main/DFRobot_VisualRotaryEncoder.cpp:53:20
	ldrh	r0, [r11, #-2]
	rev	r0, r0
	lsr	r0, r0, #16
	.loc	2 53 3 is_stmt 0        @ /root/Bela/projects/rnbo.example.bela-main/DFRobot_VisualRotaryEncoder.cpp:53:3
	mov	sp, r11
	pop	{r11, pc}
.Ltmp29:
.Lfunc_end3:
	.size	_ZN27DFRobot_VisualRotaryEncoder15getEncoderValueEv, .Lfunc_end3-_ZN27DFRobot_VisualRotaryEncoder15getEncoderValueEv
	.cfi_endproc
	.fnend

	.globl	_ZN27DFRobot_VisualRotaryEncoder15setEncoderValueEt
	.p2align	2
	.type	_ZN27DFRobot_VisualRotaryEncoder15setEncoderValueEt,%function
_ZN27DFRobot_VisualRotaryEncoder15setEncoderValueEt: @ @_ZN27DFRobot_VisualRotaryEncoder15setEncoderValueEt
.Lfunc_begin4:
	.loc	2 57 0 is_stmt 1        @ /root/Bela/projects/rnbo.example.bela-main/DFRobot_VisualRotaryEncoder.cpp:57:0
	.fnstart
	.cfi_startproc
@ BB#0:
	@DEBUG_VALUE: setEncoderValue:this <- %R0
	@DEBUG_VALUE: setEncoderValue:value <- %R1
	.loc	2 58 6 prologue_end     @ /root/Bela/projects/rnbo.example.bela-main/DFRobot_VisualRotaryEncoder.cpp:58:6
	mov	r2, #0
	cmp	r2, r1, lsr #10
	.loc	2 64 1                  @ /root/Bela/projects/rnbo.example.bela-main/DFRobot_VisualRotaryEncoder.cpp:64:1
	bxne	lr
	.save	{r11, lr}
	push	{r11, lr}
.Ltmp30:
	.cfi_def_cfa_offset 8
.Ltmp31:
	.cfi_offset lr, -4
.Ltmp32:
	.cfi_offset r11, -8
	.setfp	r11, sp
	mov	r11, sp
.Ltmp33:
	.cfi_def_cfa_register r11
	.pad	#8
	sub	sp, sp, #8
.Ltmp34:
	.loc	2 60 18                 @ /root/Bela/projects/rnbo.example.bela-main/DFRobot_VisualRotaryEncoder.cpp:60:18
	lsr	r2, r1, #8
	.loc	2 62 5                  @ /root/Bela/projects/rnbo.example.bela-main/DFRobot_VisualRotaryEncoder.cpp:62:5
	mov	r3, #2
	.loc	2 60 16                 @ /root/Bela/projects/rnbo.example.bela-main/DFRobot_VisualRotaryEncoder.cpp:60:16
	strb	r2, [r11, #-2]
	sub	r2, r11, #2
.Ltmp35:
	@DEBUG_VALUE: tempBuf <- [%R2+0]
	.loc	2 61 16                 @ /root/Bela/projects/rnbo.example.bela-main/DFRobot_VisualRotaryEncoder.cpp:61:16
	strb	r1, [r11, #-1]
	.loc	2 62 5                  @ /root/Bela/projects/rnbo.example.bela-main/DFRobot_VisualRotaryEncoder.cpp:62:5
	ldr	r1, [r0]
.Ltmp36:
	ldr	r12, [r1, #4]
	mov	r1, #8
	blx	r12
.Ltmp37:
	mov	sp, r11
	pop	{r11, lr}
.Ltmp38:
	.loc	2 64 1                  @ /root/Bela/projects/rnbo.example.bela-main/DFRobot_VisualRotaryEncoder.cpp:64:1
	bx	lr
.Ltmp39:
.Lfunc_end4:
	.size	_ZN27DFRobot_VisualRotaryEncoder15setEncoderValueEt, .Lfunc_end4-_ZN27DFRobot_VisualRotaryEncoder15setEncoderValueEt
	.cfi_endproc
	.fnend

	.globl	_ZN27DFRobot_VisualRotaryEncoder18getGainCoefficientEv
	.p2align	2
	.type	_ZN27DFRobot_VisualRotaryEncoder18getGainCoefficientEv,%function
_ZN27DFRobot_VisualRotaryEncoder18getGainCoefficientEv: @ @_ZN27DFRobot_VisualRotaryEncoder18getGainCoefficientEv
.Lfunc_begin5:
	.loc	2 66 0                  @ /root/Bela/projects/rnbo.example.bela-main/DFRobot_VisualRotaryEncoder.cpp:66:0
	.fnstart
	.cfi_startproc
@ BB#0:
	.save	{r11, lr}
	push	{r11, lr}
.Ltmp40:
	.cfi_def_cfa_offset 8
.Ltmp41:
	.cfi_offset lr, -4
.Ltmp42:
	.cfi_offset r11, -8
	.setfp	r11, sp
	mov	r11, sp
.Ltmp43:
	.cfi_def_cfa_register r11
	.pad	#8
	sub	sp, sp, #8
	@DEBUG_VALUE: getGainCoefficient:this <- %R0
.Ltmp44:
	.loc	2 67 11 prologue_end    @ /root/Bela/projects/rnbo.example.bela-main/DFRobot_VisualRotaryEncoder.cpp:67:11
	mov	r1, #0
.Ltmp45:
	@DEBUG_VALUE: getGainCoefficient:RotateGain <- 0
	sub	r2, r11, #1
.Ltmp46:
	@DEBUG_VALUE: getGainCoefficient:RotateGain <- [%R2+0]
	strb	r1, [r11, #-1]
	.loc	2 68 3                  @ /root/Bela/projects/rnbo.example.bela-main/DFRobot_VisualRotaryEncoder.cpp:68:3
	mov	r3, #1
	ldr	r1, [r0]
	ldr	r12, [r1, #8]
	mov	r1, #11
	blx	r12
.Ltmp47:
	.loc	2 70 3                  @ /root/Bela/projects/rnbo.example.bela-main/DFRobot_VisualRotaryEncoder.cpp:70:3
	ldrb	r0, [r11, #-1]
	mov	sp, r11
	pop	{r11, pc}
.Ltmp48:
.Lfunc_end5:
	.size	_ZN27DFRobot_VisualRotaryEncoder18getGainCoefficientEv, .Lfunc_end5-_ZN27DFRobot_VisualRotaryEncoder18getGainCoefficientEv
	.cfi_endproc
	.fnend

	.globl	_ZN27DFRobot_VisualRotaryEncoder18setGainCoefficientEh
	.p2align	2
	.type	_ZN27DFRobot_VisualRotaryEncoder18setGainCoefficientEh,%function
_ZN27DFRobot_VisualRotaryEncoder18setGainCoefficientEh: @ @_ZN27DFRobot_VisualRotaryEncoder18setGainCoefficientEh
.Lfunc_begin6:
	.loc	2 73 0                  @ /root/Bela/projects/rnbo.example.bela-main/DFRobot_VisualRotaryEncoder.cpp:73:0
	.fnstart
	.cfi_startproc
@ BB#0:
	.save	{r11, lr}
	push	{r11, lr}
.Ltmp49:
	.cfi_def_cfa_offset 8
.Ltmp50:
	.cfi_offset lr, -4
.Ltmp51:
	.cfi_offset r11, -8
	.setfp	r11, sp
	mov	r11, sp
.Ltmp52:
	.cfi_def_cfa_register r11
	.pad	#8
	sub	sp, sp, #8
	@DEBUG_VALUE: setGainCoefficient:this <- %R0
	@DEBUG_VALUE: setGainCoefficient:gainValue <- %R1
	strb	r1, [r11, #-1]
.Ltmp53:
	.loc	2 74 26 prologue_end    @ /root/Bela/projects/rnbo.example.bela-main/DFRobot_VisualRotaryEncoder.cpp:74:26
	sub	r1, r1, #1
.Ltmp54:
	uxtb	r1, r1
	cmp	r1, #50
	bhi	.LBB6_2
.Ltmp55:
@ BB#1:
	@DEBUG_VALUE: setGainCoefficient:this <- %R0
	.loc	2 75 5                  @ /root/Bela/projects/rnbo.example.bela-main/DFRobot_VisualRotaryEncoder.cpp:75:5
	ldr	r1, [r0]
	sub	r2, r11, #1
.Ltmp56:
	@DEBUG_VALUE: setGainCoefficient:gainValue <- [%R2+0]
	mov	r3, #1
	ldr	r12, [r1, #4]
	mov	r1, #11
	blx	r12
.Ltmp57:
.LBB6_2:
	.loc	2 77 1                  @ /root/Bela/projects/rnbo.example.bela-main/DFRobot_VisualRotaryEncoder.cpp:77:1
	mov	sp, r11
	pop	{r11, pc}
.Ltmp58:
.Lfunc_end6:
	.size	_ZN27DFRobot_VisualRotaryEncoder18setGainCoefficientEh, .Lfunc_end6-_ZN27DFRobot_VisualRotaryEncoder18setGainCoefficientEh
	.cfi_endproc
	.fnend

	.globl	_ZN27DFRobot_VisualRotaryEncoder16detectButtonDownEv
	.p2align	2
	.type	_ZN27DFRobot_VisualRotaryEncoder16detectButtonDownEv,%function
_ZN27DFRobot_VisualRotaryEncoder16detectButtonDownEv: @ @_ZN27DFRobot_VisualRotaryEncoder16detectButtonDownEv
.Lfunc_begin7:
	.loc	2 79 0                  @ /root/Bela/projects/rnbo.example.bela-main/DFRobot_VisualRotaryEncoder.cpp:79:0
	.fnstart
	.cfi_startproc
@ BB#0:
	.save	{r4, r5, r11, lr}
	push	{r4, r5, r11, lr}
.Ltmp59:
	.cfi_def_cfa_offset 16
.Ltmp60:
	.cfi_offset lr, -4
.Ltmp61:
	.cfi_offset r11, -8
.Ltmp62:
	.cfi_offset r5, -12
.Ltmp63:
	.cfi_offset r4, -16
	.setfp	r11, sp, #8
	add	r11, sp, #8
.Ltmp64:
	.cfi_def_cfa r11, 8
	.pad	#8
	sub	sp, sp, #8
	@DEBUG_VALUE: detectButtonDown:this <- %R0
	mov	r5, #0
.Ltmp65:
	@DEBUG_VALUE: detectButtonDown:clearStatus <- 0
	mov	r4, r0
.Ltmp66:
	@DEBUG_VALUE: detectButtonDown:ret <- 0
	@DEBUG_VALUE: detectButtonDown:this <- %R4
	.loc	2 81 25 prologue_end    @ /root/Bela/projects/rnbo.example.bela-main/DFRobot_VisualRotaryEncoder.cpp:81:25
	strb	r5, [sp, #6]
	add	r2, sp, #7
.Ltmp67:
	@DEBUG_VALUE: detectButtonDown:buttonStatus <- [%R2+0]
	.loc	2 83 3                  @ /root/Bela/projects/rnbo.example.bela-main/DFRobot_VisualRotaryEncoder.cpp:83:3
	ldr	r0, [r4]
	mov	r1, #10
	mov	r3, #1
	ldr	r12, [r0, #8]
	mov	r0, r4
	blx	r12
.Ltmp68:
	.loc	2 85 13                 @ /root/Bela/projects/rnbo.example.bela-main/DFRobot_VisualRotaryEncoder.cpp:85:13
	ldrb	r0, [sp, #7]
.Ltmp69:
	.loc	2 85 7 is_stmt 0        @ /root/Bela/projects/rnbo.example.bela-main/DFRobot_VisualRotaryEncoder.cpp:85:7
	tst	r0, #1
	beq	.LBB7_2
.Ltmp70:
@ BB#1:
	@DEBUG_VALUE: detectButtonDown:this <- %R4
	.loc	2 86 5 is_stmt 1        @ /root/Bela/projects/rnbo.example.bela-main/DFRobot_VisualRotaryEncoder.cpp:86:5
	ldr	r0, [r4]
	add	r2, sp, #6
.Ltmp71:
	@DEBUG_VALUE: detectButtonDown:clearStatus <- [%R2+0]
	mov	r1, #10
	mov	r3, #1
	ldr	r5, [r0, #4]
	mov	r0, r4
	blx	r5
.Ltmp72:
	@DEBUG_VALUE: detectButtonDown:ret <- 1
	mov	r5, #1
.Ltmp73:
.LBB7_2:
	@DEBUG_VALUE: detectButtonDown:this <- %R4
	.loc	2 90 3                  @ /root/Bela/projects/rnbo.example.bela-main/DFRobot_VisualRotaryEncoder.cpp:90:3
	mov	r0, r5
	sub	sp, r11, #8
	pop	{r4, r5, r11, pc}
.Ltmp74:
.Lfunc_end7:
	.size	_ZN27DFRobot_VisualRotaryEncoder16detectButtonDownEv, .Lfunc_end7-_ZN27DFRobot_VisualRotaryEncoder16detectButtonDownEv
	.cfi_endproc
	.fnend

	.globl	_ZN31DFRobot_VisualRotaryEncoder_I2CC2Ehi
	.p2align	2
	.type	_ZN31DFRobot_VisualRotaryEncoder_I2CC2Ehi,%function
_ZN31DFRobot_VisualRotaryEncoder_I2CC2Ehi: @ @_ZN31DFRobot_VisualRotaryEncoder_I2CC2Ehi
.Lfunc_begin8:
	.loc	2 96 0                  @ /root/Bela/projects/rnbo.example.bela-main/DFRobot_VisualRotaryEncoder.cpp:96:0
	.fnstart
	.cfi_startproc
@ BB#0:                                 @ %.noexc
	.save	{r4, r5, r6, r7, r11, lr}
	push	{r4, r5, r6, r7, r11, lr}
.Ltmp75:
	.cfi_def_cfa_offset 24
.Ltmp76:
	.cfi_offset lr, -4
.Ltmp77:
	.cfi_offset r11, -8
.Ltmp78:
	.cfi_offset r7, -12
.Ltmp79:
	.cfi_offset r6, -16
.Ltmp80:
	.cfi_offset r5, -20
.Ltmp81:
	.cfi_offset r4, -24
	.setfp	r11, sp, #16
	add	r11, sp, #16
.Ltmp82:
	.cfi_def_cfa r11, 8
	.pad	#64
	sub	sp, sp, #64
	@DEBUG_VALUE: DFRobot_VisualRotaryEncoder_I2C:this <- %R0
	@DEBUG_VALUE: DFRobot_VisualRotaryEncoder_I2C:i2cAddr <- %R1
	@DEBUG_VALUE: DFRobot_VisualRotaryEncoder_I2C:bus <- %R2
	mov	r4, r0
.Ltmp83:
	@DEBUG_VALUE: DFRobot_VisualRotaryEncoder_I2C:this <- %R4
	.loc	2 96 1 prologue_end     @ /root/Bela/projects/rnbo.example.bela-main/DFRobot_VisualRotaryEncoder.cpp:96:1
	movw	r0, :lower16:_ZTV31DFRobot_VisualRotaryEncoder_I2C
	movt	r0, :upper16:_ZTV31DFRobot_VisualRotaryEncoder_I2C
	mov	r5, r2
.Ltmp84:
	@DEBUG_VALUE: DFRobot_VisualRotaryEncoder_I2C:bus <- %R5
	mov	r6, r1
.Ltmp85:
	@DEBUG_VALUE: DFRobot_VisualRotaryEncoder_I2C:i2cAddr <- %R6
	add	r1, r0, #8
	add	r0, r0, #36
.Ltmp86:
	@DEBUG_VALUE: initI2C_RW:address <- %R6
	@DEBUG_VALUE: initI2C_RW:fileHnd <- -1
	@DEBUG_VALUE: initI2C_RW:bus <- %R5
	add	r2, r4, #12
	str	r1, [r4]
	mvn	r1, #0
	stm	r2, {r0, r5, r6}
.Ltmp87:
	.file	5 "./include" "I2c.h"
	.loc	5 50 2                  @ ./include/I2c.h:50:2
	movw	r2, :lower16:.L.str.3
	mov	r7, sp
	.loc	5 46 11                 @ ./include/I2c.h:46:11
	str	r1, [r4, #24]
	.loc	5 50 2                  @ ./include/I2c.h:50:2
	movt	r2, :upper16:.L.str.3
	mov	r0, r7
	mov	r1, #64
	mov	r3, r5
	bl	snprintf
.Ltmp88:
	.loc	5 52 18                 @ ./include/I2c.h:52:18
	mov	r0, r7
	mov	r1, #2
	bl	open
	.loc	5 52 16 is_stmt 0       @ ./include/I2c.h:52:16
	str	r0, [r4, #24]
.Ltmp89:
	.loc	5 52 6                  @ ./include/I2c.h:52:6
	cmp	r0, #0
	blt	.LBB8_3
.Ltmp90:
@ BB#1:
	@DEBUG_VALUE: initI2C_RW:bus <- %R5
	@DEBUG_VALUE: initI2C_RW:address <- %R6
	@DEBUG_VALUE: DFRobot_VisualRotaryEncoder_I2C:i2cAddr <- %R6
	@DEBUG_VALUE: DFRobot_VisualRotaryEncoder_I2C:bus <- %R5
	@DEBUG_VALUE: DFRobot_VisualRotaryEncoder_I2C:this <- %R4
	.loc	5 59 30 is_stmt 1       @ ./include/I2c.h:59:30
	ldr	r2, [r4, #20]
	.loc	5 59 6 is_stmt 0        @ ./include/I2c.h:59:6
	movw	r1, #1795
	bl	ioctl
.Ltmp91:
	.loc	5 59 6                  @ ./include/I2c.h:59:6
	cmp	r0, #0
	blt	.LBB8_4
.Ltmp92:
.LBB8_2:
	@DEBUG_VALUE: initI2C_RW:bus <- %R5
	@DEBUG_VALUE: initI2C_RW:address <- %R6
	@DEBUG_VALUE: DFRobot_VisualRotaryEncoder_I2C:i2cAddr <- %R6
	@DEBUG_VALUE: DFRobot_VisualRotaryEncoder_I2C:bus <- %R5
	@DEBUG_VALUE: DFRobot_VisualRotaryEncoder_I2C:this <- %R4
	.loc	2 99 1 is_stmt 1 discriminator 1 @ /root/Bela/projects/rnbo.example.bela-main/DFRobot_VisualRotaryEncoder.cpp:99:1
	mov	r0, r4
	sub	sp, r11, #16
	pop	{r4, r5, r6, r7, r11, pc}
.Ltmp93:
.LBB8_3:
	@DEBUG_VALUE: initI2C_RW:bus <- %R5
	@DEBUG_VALUE: initI2C_RW:address <- %R6
	@DEBUG_VALUE: DFRobot_VisualRotaryEncoder_I2C:i2cAddr <- %R6
	@DEBUG_VALUE: DFRobot_VisualRotaryEncoder_I2C:bus <- %R5
	@DEBUG_VALUE: DFRobot_VisualRotaryEncoder_I2C:this <- %R4
	.loc	5 54 11                 @ ./include/I2c.h:54:11
	movw	r0, :lower16:stderr
	.loc	5 54 3 is_stmt 0        @ ./include/I2c.h:54:3
	movw	r1, :lower16:.L.str.4
	.loc	5 54 11                 @ ./include/I2c.h:54:11
	movt	r0, :upper16:stderr
	.loc	5 54 3                  @ ./include/I2c.h:54:3
	movt	r1, :upper16:.L.str.4
	.loc	5 54 11                 @ ./include/I2c.h:54:11
	ldr	r0, [r0]
	mov	r2, sp
	b	.LBB8_5
.Ltmp94:
.LBB8_4:
	@DEBUG_VALUE: initI2C_RW:bus <- %R5
	@DEBUG_VALUE: initI2C_RW:address <- %R6
	@DEBUG_VALUE: DFRobot_VisualRotaryEncoder_I2C:i2cAddr <- %R6
	@DEBUG_VALUE: DFRobot_VisualRotaryEncoder_I2C:bus <- %R5
	@DEBUG_VALUE: DFRobot_VisualRotaryEncoder_I2C:this <- %R4
	.loc	5 60 11 is_stmt 1       @ ./include/I2c.h:60:11
	movw	r0, :lower16:stderr
	.loc	5 60 54 is_stmt 0       @ ./include/I2c.h:60:54
	ldr	r2, [r4, #20]
	.loc	5 60 11                 @ ./include/I2c.h:60:11
	movt	r0, :upper16:stderr
	.loc	5 60 3                  @ ./include/I2c.h:60:3
	movw	r1, :lower16:.L.str.5
	.loc	5 60 11                 @ ./include/I2c.h:60:11
	ldr	r0, [r0]
	.loc	5 60 3                  @ ./include/I2c.h:60:3
	movt	r1, :upper16:.L.str.5
.Ltmp95:
.LBB8_5:
	@DEBUG_VALUE: initI2C_RW:bus <- %R5
	@DEBUG_VALUE: initI2C_RW:address <- %R6
	@DEBUG_VALUE: DFRobot_VisualRotaryEncoder_I2C:i2cAddr <- %R6
	@DEBUG_VALUE: DFRobot_VisualRotaryEncoder_I2C:bus <- %R5
	@DEBUG_VALUE: DFRobot_VisualRotaryEncoder_I2C:this <- %R4
	bl	fprintf
.Ltmp96:
	.loc	2 98 12 is_stmt 1       @ /root/Bela/projects/rnbo.example.bela-main/DFRobot_VisualRotaryEncoder.cpp:98:12
	movw	r0, :lower16:stderr
	.loc	2 98 4 is_stmt 0        @ /root/Bela/projects/rnbo.example.bela-main/DFRobot_VisualRotaryEncoder.cpp:98:4
	movw	r1, :lower16:.L.str
	.loc	2 98 12                 @ /root/Bela/projects/rnbo.example.bela-main/DFRobot_VisualRotaryEncoder.cpp:98:12
	movt	r0, :upper16:stderr
	.loc	2 98 4                  @ /root/Bela/projects/rnbo.example.bela-main/DFRobot_VisualRotaryEncoder.cpp:98:4
	movt	r1, :upper16:.L.str
	.loc	2 98 12                 @ /root/Bela/projects/rnbo.example.bela-main/DFRobot_VisualRotaryEncoder.cpp:98:12
	ldr	r0, [r0]
	.loc	2 98 4                  @ /root/Bela/projects/rnbo.example.bela-main/DFRobot_VisualRotaryEncoder.cpp:98:4
	mov	r2, r6
	mov	r3, r5
	bl	fprintf
	b	.LBB8_2
.Ltmp97:
.Lfunc_end8:
	.size	_ZN31DFRobot_VisualRotaryEncoder_I2CC2Ehi, .Lfunc_end8-_ZN31DFRobot_VisualRotaryEncoder_I2CC2Ehi
	.cfi_endproc
	.file	6 "/usr/include/arm-linux-gnueabihf/bits" "types.h"
	.file	7 "/usr/include" "stdio.h"
	.fnend

	.globl	_ZN31DFRobot_VisualRotaryEncoder_I2C5beginEv
	.p2align	2
	.type	_ZN31DFRobot_VisualRotaryEncoder_I2C5beginEv,%function
_ZN31DFRobot_VisualRotaryEncoder_I2C5beginEv: @ @_ZN31DFRobot_VisualRotaryEncoder_I2C5beginEv
.Lfunc_begin9:
	.loc	2 102 0 is_stmt 1       @ /root/Bela/projects/rnbo.example.bela-main/DFRobot_VisualRotaryEncoder.cpp:102:0
	.fnstart
	.cfi_startproc
@ BB#0:
	.save	{r11, lr}
	push	{r11, lr}
.Ltmp98:
	.cfi_def_cfa_offset 8
.Ltmp99:
	.cfi_offset lr, -4
.Ltmp100:
	.cfi_offset r11, -8
	.setfp	r11, sp
	mov	r11, sp
.Ltmp101:
	.cfi_def_cfa_register r11
	.pad	#8
	sub	sp, sp, #8
	@DEBUG_VALUE: begin:this <- %R0
.Ltmp102:
	@DEBUG_VALUE: begin:this <- %R0
	.loc	2 22 11 prologue_end    @ /root/Bela/projects/rnbo.example.bela-main/DFRobot_VisualRotaryEncoder.cpp:22:11
	ldr	r1, [r0]
	sub	r2, r11, #2
	mov	r3, #2
	ldr	r12, [r1, #8]
	mov	r1, #0
	blx	r12
.Ltmp103:
	mov	r1, r0
	mvn	r0, #0
.Ltmp104:
	.loc	2 22 6 is_stmt 0        @ /root/Bela/projects/rnbo.example.bela-main/DFRobot_VisualRotaryEncoder.cpp:22:6
	cmp	r1, #0
	beq	.LBB9_3
@ BB#1:
.Ltmp105:
	.loc	2 28 29 is_stmt 1       @ /root/Bela/projects/rnbo.example.bela-main/DFRobot_VisualRotaryEncoder.cpp:28:29
	ldrb	r0, [r11, #-2]
	.loc	2 28 24 is_stmt 0       @ /root/Bela/projects/rnbo.example.bela-main/DFRobot_VisualRotaryEncoder.cpp:28:24
	movw	r2, #502
	.loc	2 28 55                 @ /root/Bela/projects/rnbo.example.bela-main/DFRobot_VisualRotaryEncoder.cpp:28:55
	ldrb	r1, [r11, #-1]
	.loc	2 28 53                 @ /root/Bela/projects/rnbo.example.bela-main/DFRobot_VisualRotaryEncoder.cpp:28:53
	orr	r1, r1, r0, lsl #8
	mvn	r0, #1
.Ltmp106:
	.loc	2 28 7                  @ /root/Bela/projects/rnbo.example.bela-main/DFRobot_VisualRotaryEncoder.cpp:28:7
	cmp	r1, r2
	bne	.LBB9_3
@ BB#2:
	.loc	2 33 3 is_stmt 1        @ /root/Bela/projects/rnbo.example.bela-main/DFRobot_VisualRotaryEncoder.cpp:33:3
	movw	r0, #20000
	bl	usleep
	mov	r0, #0
.Ltmp107:
.LBB9_3:                                @ %_ZN27DFRobot_VisualRotaryEncoder5beginEv.exit
	.loc	2 103 3                 @ /root/Bela/projects/rnbo.example.bela-main/DFRobot_VisualRotaryEncoder.cpp:103:3
	mov	sp, r11
	pop	{r11, pc}
.Ltmp108:
.Lfunc_end9:
	.size	_ZN31DFRobot_VisualRotaryEncoder_I2C5beginEv, .Lfunc_end9-_ZN31DFRobot_VisualRotaryEncoder_I2C5beginEv
	.cfi_endproc
	.fnend

	.globl	_ZN31DFRobot_VisualRotaryEncoder_I2C8writeRegEhPKvj
	.p2align	2
	.type	_ZN31DFRobot_VisualRotaryEncoder_I2C8writeRegEhPKvj,%function
_ZN31DFRobot_VisualRotaryEncoder_I2C8writeRegEhPKvj: @ @_ZN31DFRobot_VisualRotaryEncoder_I2C8writeRegEhPKvj
.Lfunc_begin10:
	.loc	2 109 0                 @ /root/Bela/projects/rnbo.example.bela-main/DFRobot_VisualRotaryEncoder.cpp:109:0
	.fnstart
	.cfi_startproc
@ BB#0:
	.save	{r4, r5, r6, r7, r8, r9, r11, lr}
	push	{r4, r5, r6, r7, r8, r9, r11, lr}
.Ltmp109:
	.cfi_def_cfa_offset 32
.Ltmp110:
	.cfi_offset lr, -4
.Ltmp111:
	.cfi_offset r11, -8
.Ltmp112:
	.cfi_offset r9, -12
.Ltmp113:
	.cfi_offset r8, -16
.Ltmp114:
	.cfi_offset r7, -20
.Ltmp115:
	.cfi_offset r6, -24
.Ltmp116:
	.cfi_offset r5, -28
.Ltmp117:
	.cfi_offset r4, -32
	.setfp	r11, sp, #24
	add	r11, sp, #24
.Ltmp118:
	.cfi_def_cfa r11, 8
	@DEBUG_VALUE: writeReg:this <- %R0
	@DEBUG_VALUE: writeReg:reg <- %R1
	@DEBUG_VALUE: writeReg:pBuf <- %R2
	@DEBUG_VALUE: writeReg:size <- %R3
	mov	r5, r3
.Ltmp119:
	@DEBUG_VALUE: writeReg:size <- %R5
	mov	r6, r0
.Ltmp120:
	@DEBUG_VALUE: writeReg:this <- %R6
	.loc	2 113 3 prologue_end    @ /root/Bela/projects/rnbo.example.bela-main/DFRobot_VisualRotaryEncoder.cpp:113:3
	add	r0, r5, #8
	mov	r4, r1
.Ltmp121:
	@DEBUG_VALUE: writeReg:reg <- %R4
	bfc	r0, #0, #3
	sub	r7, sp, r0
.Ltmp122:
	@DEBUG_VALUE: writeReg:buf <-  [complex expression]
	mov	sp, r7
	.loc	2 114 10                @ /root/Bela/projects/rnbo.example.bela-main/DFRobot_VisualRotaryEncoder.cpp:114:10
	mov	r0, r7
	.loc	2 115 3                 @ /root/Bela/projects/rnbo.example.bela-main/DFRobot_VisualRotaryEncoder.cpp:115:3
	mov	r1, r2
.Ltmp123:
	@DEBUG_VALUE: writeReg:pBuf <- %R1
	.loc	2 114 10                @ /root/Bela/projects/rnbo.example.bela-main/DFRobot_VisualRotaryEncoder.cpp:114:10
	strb	r4, [r0], #1
	.loc	2 115 3                 @ /root/Bela/projects/rnbo.example.bela-main/DFRobot_VisualRotaryEncoder.cpp:115:3
	mov	r2, r5
	bl	memcpy
.Ltmp124:
	.loc	2 113 14                @ /root/Bela/projects/rnbo.example.bela-main/DFRobot_VisualRotaryEncoder.cpp:113:14
	add	r5, r5, #1
.Ltmp125:
	.loc	2 116 12                @ /root/Bela/projects/rnbo.example.bela-main/DFRobot_VisualRotaryEncoder.cpp:116:12
	ldr	r0, [r6, #24]
	.loc	2 116 6 is_stmt 0       @ /root/Bela/projects/rnbo.example.bela-main/DFRobot_VisualRotaryEncoder.cpp:116:6
	mov	r1, r7
	mov	r2, r5
	bl	write
.Ltmp126:
	.loc	2 116 6                 @ /root/Bela/projects/rnbo.example.bela-main/DFRobot_VisualRotaryEncoder.cpp:116:6
	cmp	r0, r5
	beq	.LBB10_2
.Ltmp127:
@ BB#1:
	@DEBUG_VALUE: writeReg:buf <-  [complex expression]
	@DEBUG_VALUE: writeReg:reg <- %R4
	@DEBUG_VALUE: writeReg:this <- %R6
	.loc	2 117 13 is_stmt 1      @ /root/Bela/projects/rnbo.example.bela-main/DFRobot_VisualRotaryEncoder.cpp:117:13
	movw	r0, :lower16:stderr
	.loc	2 117 5 is_stmt 0       @ /root/Bela/projects/rnbo.example.bela-main/DFRobot_VisualRotaryEncoder.cpp:117:5
	movw	r1, :lower16:.L.str.1
	.loc	2 117 13                @ /root/Bela/projects/rnbo.example.bela-main/DFRobot_VisualRotaryEncoder.cpp:117:13
	movt	r0, :upper16:stderr
	.loc	2 117 5                 @ /root/Bela/projects/rnbo.example.bela-main/DFRobot_VisualRotaryEncoder.cpp:117:5
	movt	r1, :upper16:.L.str.1
	.loc	2 117 13                @ /root/Bela/projects/rnbo.example.bela-main/DFRobot_VisualRotaryEncoder.cpp:117:13
	ldr	r0, [r0]
	.loc	2 117 5                 @ /root/Bela/projects/rnbo.example.bela-main/DFRobot_VisualRotaryEncoder.cpp:117:5
	mov	r2, r4
	bl	fprintf
.Ltmp128:
.LBB10_2:
	@DEBUG_VALUE: writeReg:buf <-  [complex expression]
	@DEBUG_VALUE: writeReg:reg <- %R4
	@DEBUG_VALUE: writeReg:this <- %R6
	.loc	2 118 1 is_stmt 1       @ /root/Bela/projects/rnbo.example.bela-main/DFRobot_VisualRotaryEncoder.cpp:118:1
	sub	sp, r11, #24
	pop	{r4, r5, r6, r7, r8, r9, r11, pc}
.Ltmp129:
.Lfunc_end10:
	.size	_ZN31DFRobot_VisualRotaryEncoder_I2C8writeRegEhPKvj, .Lfunc_end10-_ZN31DFRobot_VisualRotaryEncoder_I2C8writeRegEhPKvj
	.cfi_endproc
	.fnend

	.globl	_ZN31DFRobot_VisualRotaryEncoder_I2C7readRegEhPvj
	.p2align	2
	.type	_ZN31DFRobot_VisualRotaryEncoder_I2C7readRegEhPvj,%function
_ZN31DFRobot_VisualRotaryEncoder_I2C7readRegEhPvj: @ @_ZN31DFRobot_VisualRotaryEncoder_I2C7readRegEhPvj
.Lfunc_begin11:
	.loc	2 121 0                 @ /root/Bela/projects/rnbo.example.bela-main/DFRobot_VisualRotaryEncoder.cpp:121:0
	.fnstart
	.cfi_startproc
@ BB#0:
	.save	{r4, r5, r6, r10, r11, lr}
	push	{r4, r5, r6, r10, r11, lr}
.Ltmp130:
	.cfi_def_cfa_offset 24
.Ltmp131:
	.cfi_offset lr, -4
.Ltmp132:
	.cfi_offset r11, -8
.Ltmp133:
	.cfi_offset r10, -12
.Ltmp134:
	.cfi_offset r6, -16
.Ltmp135:
	.cfi_offset r5, -20
.Ltmp136:
	.cfi_offset r4, -24
	.setfp	r11, sp, #16
	add	r11, sp, #16
.Ltmp137:
	.cfi_def_cfa r11, 8
	.pad	#40
	sub	sp, sp, #40
	@DEBUG_VALUE: readReg:this <- %R0
	@DEBUG_VALUE: readReg:reg <- %R1
	@DEBUG_VALUE: readReg:pBuf <- %R2
	@DEBUG_VALUE: readReg:size <- %R3
.Ltmp138:
	@DEBUG_VALUE: readReg:outbuf <- %R1
	mov	r6, r1
.Ltmp139:
	@DEBUG_VALUE: readReg:outbuf <- %R6
	@DEBUG_VALUE: readReg:reg <- %R6
	mov	r5, r3
.Ltmp140:
	@DEBUG_VALUE: readReg:size <- %R5
	.loc	2 125 14 prologue_end   @ /root/Bela/projects/rnbo.example.bela-main/DFRobot_VisualRotaryEncoder.cpp:125:14
	strb	r6, [r11, #-17]
	mov	r3, #0
	.loc	2 130 22                @ /root/Bela/projects/rnbo.example.bela-main/DFRobot_VisualRotaryEncoder.cpp:130:22
	ldrh	r1, [r0, #20]
	sub	r4, r11, #17
.Ltmp141:
	@DEBUG_VALUE: readReg:outbuf <- [%R4+0]
	.loc	2 130 20 is_stmt 0      @ /root/Bela/projects/rnbo.example.bela-main/DFRobot_VisualRotaryEncoder.cpp:130:20
	strh	r1, [sp, #4]
	.loc	2 131 21 is_stmt 1      @ /root/Bela/projects/rnbo.example.bela-main/DFRobot_VisualRotaryEncoder.cpp:131:21
	strh	r3, [sp, #6]
	.loc	2 132 19                @ /root/Bela/projects/rnbo.example.bela-main/DFRobot_VisualRotaryEncoder.cpp:132:19
	mov	r3, #1
	strh	r3, [sp, #8]
	.loc	2 133 19                @ /root/Bela/projects/rnbo.example.bela-main/DFRobot_VisualRotaryEncoder.cpp:133:19
	str	r4, [sp, #12]
	.loc	2 136 20                @ /root/Bela/projects/rnbo.example.bela-main/DFRobot_VisualRotaryEncoder.cpp:136:20
	strh	r1, [sp, #16]
	add	r1, sp, #4
.Ltmp142:
	@DEBUG_VALUE: readReg:messages <- [%R1+0]
	.loc	2 142 16                @ /root/Bela/projects/rnbo.example.bela-main/DFRobot_VisualRotaryEncoder.cpp:142:16
	str	r1, [sp, #28]
	mov	r1, #2
.Ltmp143:
	.loc	2 137 21                @ /root/Bela/projects/rnbo.example.bela-main/DFRobot_VisualRotaryEncoder.cpp:137:21
	strh	r3, [sp, #18]
	.loc	2 138 19                @ /root/Bela/projects/rnbo.example.bela-main/DFRobot_VisualRotaryEncoder.cpp:138:19
	strh	r5, [sp, #20]
	.loc	2 139 19                @ /root/Bela/projects/rnbo.example.bela-main/DFRobot_VisualRotaryEncoder.cpp:139:19
	str	r2, [sp, #24]
	add	r2, sp, #28
.Ltmp144:
	@DEBUG_VALUE: readReg:packets <- [%R2+0]
	.loc	2 143 17                @ /root/Bela/projects/rnbo.example.bela-main/DFRobot_VisualRotaryEncoder.cpp:143:17
	str	r1, [sp, #32]
.Ltmp145:
	.loc	2 144 6                 @ /root/Bela/projects/rnbo.example.bela-main/DFRobot_VisualRotaryEncoder.cpp:144:6
	movw	r1, #1799
	.loc	2 144 12 is_stmt 0      @ /root/Bela/projects/rnbo.example.bela-main/DFRobot_VisualRotaryEncoder.cpp:144:12
	ldr	r0, [r0, #24]
.Ltmp146:
	.loc	2 144 6                 @ /root/Bela/projects/rnbo.example.bela-main/DFRobot_VisualRotaryEncoder.cpp:144:6
	bl	ioctl
.Ltmp147:
	.loc	2 144 6                 @ /root/Bela/projects/rnbo.example.bela-main/DFRobot_VisualRotaryEncoder.cpp:144:6
	cmp	r0, #0
	blt	.LBB11_2
.Ltmp148:
.LBB11_1:
	@DEBUG_VALUE: readReg:outbuf <- [%R4+0]
	@DEBUG_VALUE: readReg:reg <- %R6
	.loc	2 149 1 is_stmt 1       @ /root/Bela/projects/rnbo.example.bela-main/DFRobot_VisualRotaryEncoder.cpp:149:1
	mov	r0, r5
	sub	sp, r11, #16
	pop	{r4, r5, r6, r10, r11, pc}
.Ltmp149:
.LBB11_2:
	@DEBUG_VALUE: readReg:outbuf <- [%R4+0]
	@DEBUG_VALUE: readReg:size <- %R5
	@DEBUG_VALUE: readReg:reg <- %R6
	.loc	2 145 15                @ /root/Bela/projects/rnbo.example.bela-main/DFRobot_VisualRotaryEncoder.cpp:145:15
	movw	r0, :lower16:stderr
	.loc	2 145 7 is_stmt 0       @ /root/Bela/projects/rnbo.example.bela-main/DFRobot_VisualRotaryEncoder.cpp:145:7
	movw	r1, :lower16:.L.str.2
	.loc	2 145 15                @ /root/Bela/projects/rnbo.example.bela-main/DFRobot_VisualRotaryEncoder.cpp:145:15
	movt	r0, :upper16:stderr
	.loc	2 145 7                 @ /root/Bela/projects/rnbo.example.bela-main/DFRobot_VisualRotaryEncoder.cpp:145:7
	movt	r1, :upper16:.L.str.2
	.loc	2 145 15                @ /root/Bela/projects/rnbo.example.bela-main/DFRobot_VisualRotaryEncoder.cpp:145:15
	ldr	r0, [r0]
	.loc	2 145 7                 @ /root/Bela/projects/rnbo.example.bela-main/DFRobot_VisualRotaryEncoder.cpp:145:7
	mov	r2, r6
	bl	fprintf
	mvn	r5, #0
.Ltmp150:
	b	.LBB11_1
.Ltmp151:
.Lfunc_end11:
	.size	_ZN31DFRobot_VisualRotaryEncoder_I2C7readRegEhPvj, .Lfunc_end11-_ZN31DFRobot_VisualRotaryEncoder_I2C7readRegEhPvj
	.cfi_endproc
	.fnend

	.section	.text._ZN31DFRobot_VisualRotaryEncoder_I2CD2Ev,"axG",%progbits,_ZN31DFRobot_VisualRotaryEncoder_I2CD2Ev,comdat
	.weak	_ZN31DFRobot_VisualRotaryEncoder_I2CD2Ev
	.p2align	2
	.type	_ZN31DFRobot_VisualRotaryEncoder_I2CD2Ev,%function
_ZN31DFRobot_VisualRotaryEncoder_I2CD2Ev: @ @_ZN31DFRobot_VisualRotaryEncoder_I2CD2Ev
.Lfunc_begin12:
	.loc	3 159 0 is_stmt 1       @ /root/Bela/projects/rnbo.example.bela-main/DFRobot_VisualRotaryEncoder.h:159:0
	.fnstart
	.cfi_startproc
@ BB#0:
	@DEBUG_VALUE: ~DFRobot_VisualRotaryEncoder_I2C:this <- %R0
	.loc	3 159 7 prologue_end    @ /root/Bela/projects/rnbo.example.bela-main/DFRobot_VisualRotaryEncoder.h:159:7
	bx	lr
.Ltmp152:
.Lfunc_end12:
	.size	_ZN31DFRobot_VisualRotaryEncoder_I2CD2Ev, .Lfunc_end12-_ZN31DFRobot_VisualRotaryEncoder_I2CD2Ev
	.cfi_endproc
	.fnend

	.section	.text._ZN31DFRobot_VisualRotaryEncoder_I2CD0Ev,"axG",%progbits,_ZN31DFRobot_VisualRotaryEncoder_I2CD0Ev,comdat
	.weak	_ZN31DFRobot_VisualRotaryEncoder_I2CD0Ev
	.p2align	2
	.type	_ZN31DFRobot_VisualRotaryEncoder_I2CD0Ev,%function
_ZN31DFRobot_VisualRotaryEncoder_I2CD0Ev: @ @_ZN31DFRobot_VisualRotaryEncoder_I2CD0Ev
.Lfunc_begin13:
	.loc	3 159 0                 @ /root/Bela/projects/rnbo.example.bela-main/DFRobot_VisualRotaryEncoder.h:159:0
	.fnstart
	.cfi_startproc
@ BB#0:
	@DEBUG_VALUE: ~DFRobot_VisualRotaryEncoder_I2C:this <- %R0
	.loc	3 159 7 prologue_end discriminator 1 @ /root/Bela/projects/rnbo.example.bela-main/DFRobot_VisualRotaryEncoder.h:159:7
	b	_ZdlPv
.Ltmp153:
.Lfunc_end13:
	.size	_ZN31DFRobot_VisualRotaryEncoder_I2CD0Ev, .Lfunc_end13-_ZN31DFRobot_VisualRotaryEncoder_I2CD0Ev
	.cfi_endproc
	.fnend

	.section	.text._ZThn12_N31DFRobot_VisualRotaryEncoder_I2CD1Ev,"axG",%progbits,_ZThn12_N31DFRobot_VisualRotaryEncoder_I2CD1Ev,comdat
	.weak	_ZThn12_N31DFRobot_VisualRotaryEncoder_I2CD1Ev
	.p2align	2
	.type	_ZThn12_N31DFRobot_VisualRotaryEncoder_I2CD1Ev,%function
_ZThn12_N31DFRobot_VisualRotaryEncoder_I2CD1Ev: @ @_ZThn12_N31DFRobot_VisualRotaryEncoder_I2CD1Ev
.Lfunc_begin14:
	.loc	3 159 0                 @ /root/Bela/projects/rnbo.example.bela-main/DFRobot_VisualRotaryEncoder.h:159:0
	.fnstart
	.cfi_startproc
@ BB#0:
	@DEBUG_VALUE: this <- %R0
	.loc	3 159 7 prologue_end    @ /root/Bela/projects/rnbo.example.bela-main/DFRobot_VisualRotaryEncoder.h:159:7
	bx	lr
.Ltmp154:
.Lfunc_end14:
	.size	_ZThn12_N31DFRobot_VisualRotaryEncoder_I2CD1Ev, .Lfunc_end14-_ZThn12_N31DFRobot_VisualRotaryEncoder_I2CD1Ev
	.cfi_endproc
	.fnend

	.section	.text._ZThn12_N31DFRobot_VisualRotaryEncoder_I2CD0Ev,"axG",%progbits,_ZThn12_N31DFRobot_VisualRotaryEncoder_I2CD0Ev,comdat
	.weak	_ZThn12_N31DFRobot_VisualRotaryEncoder_I2CD0Ev
	.p2align	2
	.type	_ZThn12_N31DFRobot_VisualRotaryEncoder_I2CD0Ev,%function
_ZThn12_N31DFRobot_VisualRotaryEncoder_I2CD0Ev: @ @_ZThn12_N31DFRobot_VisualRotaryEncoder_I2CD0Ev
.Lfunc_begin15:
	.loc	3 159 0                 @ /root/Bela/projects/rnbo.example.bela-main/DFRobot_VisualRotaryEncoder.h:159:0
	.fnstart
	.cfi_startproc
@ BB#0:
	@DEBUG_VALUE: this <- %R0
	.loc	3 159 7 prologue_end    @ /root/Bela/projects/rnbo.example.bela-main/DFRobot_VisualRotaryEncoder.h:159:7
	sub	r0, r0, #12
.Ltmp155:
	.loc	3 159 7 is_stmt 0 discriminator 1 @ /root/Bela/projects/rnbo.example.bela-main/DFRobot_VisualRotaryEncoder.h:159:7
	b	_ZdlPv
.Ltmp156:
.Lfunc_end15:
	.size	_ZThn12_N31DFRobot_VisualRotaryEncoder_I2CD0Ev, .Lfunc_end15-_ZThn12_N31DFRobot_VisualRotaryEncoder_I2CD0Ev
	.cfi_endproc
	.file	8 "<stdin>"
	.fnend

	.type	_ZTV27DFRobot_VisualRotaryEncoder,%object @ @_ZTV27DFRobot_VisualRotaryEncoder
	.section	.rodata,"a",%progbits
	.globl	_ZTV27DFRobot_VisualRotaryEncoder
	.p2align	2
_ZTV27DFRobot_VisualRotaryEncoder:
	.long	0
	.long	_ZTI27DFRobot_VisualRotaryEncoder
	.long	_ZN27DFRobot_VisualRotaryEncoder5beginEv
	.long	__cxa_pure_virtual
	.long	__cxa_pure_virtual
	.size	_ZTV27DFRobot_VisualRotaryEncoder, 20

	.type	_ZTV31DFRobot_VisualRotaryEncoder_I2C,%object @ @_ZTV31DFRobot_VisualRotaryEncoder_I2C
	.globl	_ZTV31DFRobot_VisualRotaryEncoder_I2C
	.p2align	2
_ZTV31DFRobot_VisualRotaryEncoder_I2C:
	.long	0
	.long	_ZTI31DFRobot_VisualRotaryEncoder_I2C
	.long	_ZN31DFRobot_VisualRotaryEncoder_I2C5beginEv
	.long	_ZN31DFRobot_VisualRotaryEncoder_I2C8writeRegEhPKvj
	.long	_ZN31DFRobot_VisualRotaryEncoder_I2C7readRegEhPvj
	.long	_ZN31DFRobot_VisualRotaryEncoder_I2CD2Ev
	.long	_ZN31DFRobot_VisualRotaryEncoder_I2CD0Ev
	.long	4294967284
	.long	_ZTI31DFRobot_VisualRotaryEncoder_I2C
	.long	_ZThn12_N31DFRobot_VisualRotaryEncoder_I2CD1Ev
	.long	_ZThn12_N31DFRobot_VisualRotaryEncoder_I2CD0Ev
	.size	_ZTV31DFRobot_VisualRotaryEncoder_I2C, 44

	.type	.L.str,%object          @ @.str
	.section	.rodata.str1.1,"aMS",%progbits,1
.L.str:
	.asciz	"Error initialising sensor on bus %d, addr %#x\n"
	.size	.L.str, 47

	.type	.L.str.1,%object        @ @.str.1
.L.str.1:
	.asciz	"Failed to write register %d on I2c sensor\n"
	.size	.L.str.1, 43

	.type	.L.str.2,%object        @ @.str.2
.L.str.2:
	.asciz	"Failed to read register %d on I2c sensor\n"
	.size	.L.str.2, 42

	.type	_ZTS27DFRobot_VisualRotaryEncoder,%object @ @_ZTS27DFRobot_VisualRotaryEncoder
	.section	.rodata,"a",%progbits
	.globl	_ZTS27DFRobot_VisualRotaryEncoder
	.p2align	4
_ZTS27DFRobot_VisualRotaryEncoder:
	.asciz	"27DFRobot_VisualRotaryEncoder"
	.size	_ZTS27DFRobot_VisualRotaryEncoder, 30

	.type	_ZTI27DFRobot_VisualRotaryEncoder,%object @ @_ZTI27DFRobot_VisualRotaryEncoder
	.globl	_ZTI27DFRobot_VisualRotaryEncoder
	.p2align	2
_ZTI27DFRobot_VisualRotaryEncoder:
	.long	_ZTVN10__cxxabiv117__class_type_infoE+8
	.long	_ZTS27DFRobot_VisualRotaryEncoder
	.size	_ZTI27DFRobot_VisualRotaryEncoder, 8

	.type	_ZTS31DFRobot_VisualRotaryEncoder_I2C,%object @ @_ZTS31DFRobot_VisualRotaryEncoder_I2C
	.globl	_ZTS31DFRobot_VisualRotaryEncoder_I2C
	.p2align	4
_ZTS31DFRobot_VisualRotaryEncoder_I2C:
	.asciz	"31DFRobot_VisualRotaryEncoder_I2C"
	.size	_ZTS31DFRobot_VisualRotaryEncoder_I2C, 34

	.type	_ZTS3I2c,%object        @ @_ZTS3I2c
	.section	.rodata._ZTS3I2c,"aG",%progbits,_ZTS3I2c,comdat
	.weak	_ZTS3I2c
_ZTS3I2c:
	.asciz	"3I2c"
	.size	_ZTS3I2c, 5

	.type	_ZTI3I2c,%object        @ @_ZTI3I2c
	.section	.rodata._ZTI3I2c,"aG",%progbits,_ZTI3I2c,comdat
	.weak	_ZTI3I2c
	.p2align	2
_ZTI3I2c:
	.long	_ZTVN10__cxxabiv117__class_type_infoE+8
	.long	_ZTS3I2c
	.size	_ZTI3I2c, 8

	.type	_ZTI31DFRobot_VisualRotaryEncoder_I2C,%object @ @_ZTI31DFRobot_VisualRotaryEncoder_I2C
	.section	.rodata,"a",%progbits
	.globl	_ZTI31DFRobot_VisualRotaryEncoder_I2C
	.p2align	4
_ZTI31DFRobot_VisualRotaryEncoder_I2C:
	.long	_ZTVN10__cxxabiv121__vmi_class_type_infoE+8
	.long	_ZTS31DFRobot_VisualRotaryEncoder_I2C
	.long	0                       @ 0x0
	.long	2                       @ 0x2
	.long	_ZTI27DFRobot_VisualRotaryEncoder
	.long	2                       @ 0x2
	.long	_ZTI3I2c
	.long	3074                    @ 0xc02
	.size	_ZTI31DFRobot_VisualRotaryEncoder_I2C, 32

	.type	.L.str.3,%object        @ @.str.3
	.section	.rodata.str1.1,"aMS",%progbits,1
.L.str.3:
	.asciz	"/dev/i2c-%d"
	.size	.L.str.3, 12

	.type	.L.str.4,%object        @ @.str.4
.L.str.4:
	.asciz	"Failed to open %s I2C Bus\n"
	.size	.L.str.4, 27

	.type	.L.str.5,%object        @ @.str.5
.L.str.5:
	.asciz	"I2C_SLAVE address %#x failed..."
	.size	.L.str.5, 32

	.file	9 "/usr/include/asm-generic" "int-ll64.h"
	.file	10 "/usr/include/linux" "i2c.h"
	.file	11 "/usr/include/linux" "i2c-dev.h"
	.section	".note.GNU-stack","",%progbits
	.eabi_attribute	30, 2	@ Tag_ABI_optimization_goals